1900 20 3A 1F JSR &1F3A
1903 4C 55 09 JMP &0955         ; Called when space hit to start game
1906 A2 00    LDX #&00
1908 9A       TXS
1909 86 22    STX &22
190B A9 07    LDA #&07
190D 20 EB 0B JSR &0BEB
1910 D0 07    BNE &1919
1912 A9 08    LDA #&08
1914 20 EB 0B JSR &0BEB
1917 D0 F9    BNE &1912
1919 A9 06    LDA #&06
191B 20 EB 0B JSR &0BEB
191E D0 06    BNE &1926
1920 A5 35    LDA &35
1922 49 F1    EOR #&F1
1924 85 35    STA &35
1926 A9 0A    LDA #&0A
1928 20 EB 0B JSR &0BEB
192B F0 D3    BEQ &1900
192D A9 00    LDA #&00
192F 85 28    STA &28
1931 85 14    STA &14
1933 85 12    STA &12
1935 20 5D 13 JSR &135D
1938 20 13 11 JSR &1113
193B 20 FA 0B JSR &0BFA
193E 20 2D 11 JSR &112D
1941 A9 FF    LDA #&FF
1943 85 14    STA &14
1945 20 57 13 JSR &1357
1948 20 05 11 JSR &1105
194B 20 FA 0B JSR &0BFA
194E 20 0C 11 JSR &110C
1951 A5 22    LDA &22
1953 F0 1D    BEQ &1972
1955 20 E5 1B JSR &1BE5
1958 A5 31    LDA &31
195A D0 19    BNE &1975
195C 20 05 11 JSR &1105
195F 20 5A 1B JSR &1B5A
1962 20 0C 11 JSR &110C
1965 20 13 11 JSR &1113
1968 A9 FE    LDA #&FE
196A 85 93    STA &93
196C 20 16 15 JSR &1516
196F 20 2D 11 JSR &112D
1972 20 59 10 JSR &1059
1975 20 F9 17 JSR &17F9         ; Handle palette changes
1978 A5 13    LDA &13
197A C9 09    CMP #&09
197C F0 0B    BEQ &1989
197E C9 07    CMP #&07          ; Then check for screens 4, 7 or 9..
1980 F0 07    BEQ &1989
1982 C9 04    CMP #&04
1984 F0 03    BEQ &1989
1986 20 DE 1D JSR &1DDE         ; Handle something???
1989 A5 12    LDA &12           ; Not sure what &12 is yet? Dead flag? Collision flag?
198B F0 14    BEQ &19A1
198D C6 1B    DEC &1B           ; Decrement lives (Death by flying yellow thing)
198F 20 FC 1A JSR &1AFC
1992 20 05 11 JSR &1105
1995 A9 03    LDA #&03
1997 85 90    STA &90
1999 85 14    STA &14
199B 20 A5 0B JSR &0BA5
199E 4C 26 09 JMP &0926
19A1 A5 28    LDA &28
19A3 C9 02    CMP #&02
19A5 90 FA    BCC &19A1
19A7 A5 31    LDA &31
19A9 F0 01    BEQ &19AC
19AB 60       RTS
19AC 4C 06 09 JMP &0906
19AF A6 89    LDX &89
19B1 D0 3A    BNE &19ED
19B3 48       PHA
19B4 38       SEC
19B5 A5 81    LDA &81
19B7 48       PHA
19B8 E9 0A    SBC #&0A
19BA A6 14    LDX &14
19BC F0 02    BEQ &19C0
19BE E9 06    SBC #&06
19C0 85 81    STA &81
19C2 A5 80    LDA &80
19C4 48       PHA
19C5 20 E1 0B JSR &0BE1
19C8 20 EA 0D JSR &0DEA
19CB F0 08    BEQ &19D5
19CD 68       PLA
19CE 85 80    STA &80
19D0 68       PLA
19D1 85 81    STA &81
19D3 68       PLA
19D4 60       RTS
19D5 68       PLA
19D6 68       PLA
19D7 68       PLA
19D8 A6 14    LDX &14
19DA F0 04    BEQ &19E0
19DC 29 01    AND #&01
19DE 85 86    STA &86
19E0 A9 86    LDA #&86
19E2 85 87    STA &87
19E4 A9 01    LDA #&01
19E6 85 89    STA &89
19E8 A9 0C    LDA #&0C
19EA 85 8A    STA &8A
19EC 60       RTS
19ED C6 8A    DEC &8A
19EF D0 14    BNE &1A05
19F1 18       CLC
19F2 A5 81    LDA &81
19F4 69 0A    ADC #&0A
19F6 A6 14    LDX &14
19F8 F0 02    BEQ &19FC
19FA 69 06    ADC #&06
19FC 85 81    STA &81
19FE A9 03    LDA #&03
1A00 85 8F    STA &8F
1A02 4C 01 0D JMP &0D01
1A05 A5 80    LDA &80
1A07 29 03    AND #&03
1A09 D0 1E    BNE &1A29
1A0B A5 14    LDA &14
1A0D F0 13    BEQ &1A22
1A0F A9 02    LDA #&02
1A11 20 EB 0B JSR &0BEB
1A14 D0 13    BNE &1A29
1A16 20 F5 0F JSR &0FF5
1A19 D0 0E    BNE &1A29
1A1B A9 00    LDA #&00
1A1D 85 89    STA &89
1A1F 4C 7A 0D JMP &0D7A
1A22 20 7F 15 JSR &157F
1A25 C9 50    CMP #&50
1A27 B0 ED    BCS &1A16
1A29 20 EA 0D JSR &0DEA
1A2C D0 04    BNE &1A32
1A2E 20 E1 0B JSR &0BE1
1A31 60       RTS
1A32 A6 89    LDX &89
1A34 CA       DEX
1A35 F0 BA    BEQ &19F1
1A37 D0 4E    BNE &1A87
1A39 AA       TAX
1A3A A5 89    LDA &89
1A3C C9 02    CMP #&02
1A3E F0 40    BEQ &1A80
1A40 A5 80    LDA &80
1A42 48       PHA
1A43 A5 81    LDA &81
1A45 48       PHA
1A46 A5 14    LDA &14
1A48 F0 05    BEQ &1A4F
1A4A 8A       TXA
1A4B 29 01    AND #&01
1A4D 85 86    STA &86
1A4F A5 86    LDA &86
1A51 4A       LSR A
1A52 B0 14    BCS &1A68
1A54 A5 80    LDA &80
1A56 E9 02    SBC #&02
1A58 85 80    STA &80
1A5A 20 F4 0D JSR &0DF4
1A5D D0 04    BNE &1A63
1A5F C6 80    DEC &80
1A61 10 0C    BPL &1A6F
1A63 68       PLA
1A64 68       PLA
1A65 85 80    STA &80
1A67 60       RTS
1A68 20 62 0E JSR &0E62
1A6B D0 F6    BNE &1A63
1A6D E6 80    INC &80
1A6F 68       PLA
1A70 85 8D    STA &8D
1A72 68       PLA
1A73 A9 02    LDA #&02
1A75 85 89    STA &89
1A77 A9 08    LDA #&08
1A79 85 8A    STA &8A
1A7B A9 85    LDA #&85
1A7D 85 87    STA &87
1A7F 60       RTS
1A80 C6 8A    DEC &8A
1A82 F0 03    BEQ &1A87
1A84 4C 05 0A JMP &0A05
1A87 A9 05    LDA #&05
1A89 85 8F    STA &8F
1A8B A5 86    LDA &86
1A8D 4A       LSR A
1A8E B0 06    BCS &1A96
1A90 A5 80    LDA &80
1A92 69 03    ADC #&03
1A94 85 80    STA &80
1A96 4C 01 0D JMP &0D01
1A99 A5 89    LDA &89
1A9B F0 08    BEQ &1AA5
1A9D A9 05    LDA #&05
1A9F 20 EB 0B JSR &0BEB
1AA2 D0 22    BNE &1AC6
1AA4 60       RTS
1AA5 A9 03    LDA #&03
1AA7 85 89    STA &89
1AA9 A9 84    LDA #&84
1AAB 85 87    STA &87
1AAD A5 80    LDA &80
1AAF 85 8C    STA &8C
1AB1 A5 81    LDA &81
1AB3 85 8D    STA &8D
1AB5 18       CLC
1AB6 69 14    ADC #&14
1AB8 85 81    STA &81
1ABA A5 86    LDA &86
1ABC 4A       LSR A
1ABD 90 06    BCC &1AC5
1ABF A5 80    LDA &80
1AC1 E9 03    SBC #&03
1AC3 85 80    STA &80
1AC5 60       RTS
1AC6 A5 8D    LDA &8D
1AC8 85 81    STA &81
1ACA A5 8C    LDA &8C
1ACC 85 80    STA &80
1ACE 4C FE 09 JMP &09FE
1AD1 A5 89    LDA &89
1AD3 C9 04    CMP #&04
1AD5 F0 20    BEQ &1AF7
1AD7 20 EA 0D JSR &0DEA
1ADA D0 1F    BNE &1AFB
1ADC A9 04    LDA #&04
1ADE 85 89    STA &89
1AE0 85 8E    STA &8E
1AE2 A9 83    LDA #&83
1AE4 85 87    STA &87
1AE6 A5 80    LDA &80
1AE8 85 8C    STA &8C
1AEA A5 86    LDA &86
1AEC 4A       LSR A
1AED B0 05    BCS &1AF4
1AEF C6 80    DEC &80
1AF1 C6 80    DEC &80
1AF3 60       RTS
1AF4 E6 80    INC &80
1AF6 60       RTS
1AF7 C6 8E    DEC &8E
1AF9 F0 CF    BEQ &1ACA
1AFB 60       RTS
1AFC C6 8A    DEC &8A
1AFE F0 1D    BEQ &1B1D
1B00 A5 81    LDA &81
1B02 C9 20    CMP #&20
1B04 90 17    BCC &1B1D
1B06 20 F5 0F JSR &0FF5
1B09 D0 09    BNE &1B14
1B0B A9 00    LDA #&00
1B0D 85 89    STA &89
1B0F 85 8B    STA &8B
1B11 4C 7A 0D JMP &0D7A
1B14 A9 FF    LDA #&FF
1B16 85 8B    STA &8B
1B18 C6 81    DEC &81
1B1A C6 81    DEC &81
1B1C 60       RTS
1B1D 4C 01 0D JMP &0D01
1B20 A5 88    LDA &88
1B22 D0 04    BNE &1B28
1B24 A5 86    LDA &86
1B26 D0 1D    BNE &1B45
1B28 20 F4 0D JSR &0DF4
1B2B F0 01    BEQ &1B2E
1B2D 60       RTS
1B2E C6 80    DEC &80
1B30 A5 88    LDA &88
1B32 F0 03    BEQ &1B37
1B34 20 B3 0F JSR &0FB3
1B37 A5 87    LDA &87
1B39 29 07    AND #&07
1B3B AA       TAX
1B3C E8       INX
1B3D 86 87    STX &87
1B3F 20 C9 0D JSR &0DC9
1B42 A9 00    LDA #&00
1B44 60       RTS
1B45 A9 00    LDA #&00
1B47 85 86    STA &86
1B49 A2 80    LDX #&80
1B4B D0 F0    BNE &1B3D
1B4D A9 87    LDA #&87
1B4F C5 87    CMP &87
1B51 F0 14    BEQ &1B67
1B53 85 87    STA &87
1B55 A9 30    LDA #&30
1B57 85 8A    STA &8A
1B59 A9 00    LDA #&00
1B5B 85 88    STA &88
1B5D A5 86    LDA &86
1B5F 29 01    AND #&01
1B61 85 86    STA &86
1B63 A5 81    LDA &81
1B65 85 8D    STA &8D
1B67 A9 00    LDA #&00
1B69 85 8B    STA &8B
1B6B A5 8D    LDA &8D
1B6D 85 81    STA &81
1B6F 20 14 0F JSR &0F14
1B72 F0 60    BEQ &1BD4
1B74 C6 8A    DEC &8A
1B76 F0 2D    BEQ &1BA5
1B78 A5 8A    LDA &8A
1B7A C9 26    CMP #&26
1B7C 90 1F    BCC &1B9D
1B7E A5 86    LDA &86
1B80 48       PHA
1B81 49 01    EOR #&01
1B83 85 86    STA &86
1B85 20 EA 0D JSR &0DEA
1B88 AA       TAX
1B89 68       PLA
1B8A 85 86    STA &86
1B8C E0 00    CPX #&00
1B8E D0 0D    BNE &1B9D
1B90 A5 86    LDA &86
1B92 49 01    EOR #&01
1B94 0A       ASL A
1B95 38       SEC
1B96 E9 01    SBC #&01
1B98 18       CLC
1B99 65 80    ADC &80
1B9B 85 80    STA &80
1B9D 18       CLC
1B9E A5 81    LDA &81
1BA0 69 0C    ADC #&0C
1BA2 85 81    STA &81
1BA4 60       RTS
1BA5 A9 00    LDA #&00
1BA7 85 96    STA &96
1BA9 A6 90    LDX &90
1BAB E0 03    CPX #&03
1BAD B0 03    BCS &1BB2
1BAF 4C 01 0D JMP &0D01
1BB2 85 90    STA &90
1BB4 A2 FF    LDX #&FF
1BB6 A5 14    LDA &14
1BB8 D0 07    BNE &1BC1
1BBA 86 93    STX &93
1BBC A9 06    LDA #&06
1BBE 85 89    STA &89
1BC0 60       RTS
1BC1 86 22    STX &22
1BC3 A2 39    LDX #&39
1BC5 A0 28    LDY #&28
1BC7 20 86 03 JSR &0386
1BCA A5 1B    LDA &1B
1BCC F0 03    BEQ &1BD1
1BCE 4C 68 1D JMP &1D68
1BD1 4C 00 09 JMP &0900
1BD4 A9 FF    LDA #&FF
1BD6 85 8B    STA &8B
1BD8 A9 25    LDA #&25
1BDA 85 8A    STA &8A
1BDC E6 8D    INC &8D
1BDE E6 8D    INC &8D
1BE0 60       RTS
1BE1 C6 80    DEC &80
1BE3 A5 86    LDA &86
1BE5 0A       ASL A
1BE6 65 80    ADC &80
1BE8 85 80    STA &80
1BEA 60       RTS
1BEB 48       PHA               ; Keyscan routine
1BEC A8       TAY
1BED B6 70    LDX &70,Y         ; Get from keytable
1BEF A0 FF    LDY #&FF
1BF1 A9 81    LDA #&81
1BF3 20 F4 FF JSR &FFF4         ; Read key (OSBYTE 129)
1BF6 68       PLA
1BF7 E0 FF    CPX #&FF
1BF9 60       RTS
1BFA A5 96    LDA &96
1BFC F0 04    BEQ &1C02
1BFE A9 07    LDA #&07
1C00 85 89    STA &89
1C02 A5 89    LDA &89
1C04 0A       ASL A
1C05 AA       TAX
1C06 BD 13 0C LDA &0C13,X
1C09 85 7B    STA &7B
1C0B BD 14 0C LDA &0C14,X
1C0E 85 7C    STA &7C
1C10 6C 7B 00 JMP (&007B)
1C13 23       ???
1C14 0C AF 09 TSB &09AF
1C17 39 0A 99 AND &990A,Y
1C1A 0A       ASL A
1C1B D1 0A    CMP (&0A),Y
1C1D FC 0A 16 ??? &160A
1C20 15 4D    ORA 4D,X
1C22 0B       ???
1C23 A5 8F    LDA &8F
1C25 F0 02    BEQ &1C29
1C27 C6 8F    DEC &8F
1C29 18       CLC
1C2A A5 81    LDA &81
1C2C 69 12    ADC #&12
1C2E 85 0E    STA &0E
1C30 A5 80    LDA &80
1C32 85 0D    STA &0D
1C34 20 07 20 JSR &2007
1C37 18       CLC
1C38 A5 80    LDA &80
1C3A 69 03    ADC #&03
1C3C 85 0D    STA &0D
1C3E 20 07 20 JSR &2007
1C41 20 5E 0C JSR &0C5E
1C44 A5 89    LDA &89
1C46 D0 12    BNE &1C5A
1C48 20 05 10 JSR &1005
1C4B D0 0D    BNE &1C5A
1C4D A5 88    LDA &88
1C4F 48       PHA
1C50 20 F5 0F JSR &0FF5
1C53 68       PLA
1C54 A6 88    LDX &88
1C56 30 03    BMI &1C5B
1C58 85 88    STA &88
1C5A 60       RTS
1C5B C6 81    DEC &81
1C5D 60       RTS
1C5E A5 14    LDA &14
1C60 D0 03    BNE &1C65
1C62 4C 0E 14 JMP &140E
1C65 A9 00    LDA #&00
1C67 20 EB 0B JSR &0BEB
1C6A F0 1F    BEQ &1C8B
1C6C A9 01    LDA #&01
1C6E 20 EB 0B JSR &0BEB
1C71 F0 18    BEQ &1C8B
1C73 A9 02    LDA #&02
1C75 20 EB 0B JSR &0BEB
1C78 D0 05    BNE &1C7F
1C7A 20 7A 0D JSR &0D7A
1C7D F0 DB    BEQ &1C5A
1C7F A9 03    LDA #&03
1C81 20 EB 0B JSR &0BEB
1C84 D0 05    BNE &1C8B
1C86 20 A2 0D JSR &0DA2
1C89 F0 CF    BEQ &1C5A
1C8B A9 00    LDA #&00
1C8D 85 8B    STA &8B
1C8F A5 88    LDA &88
1C91 F0 03    BEQ &1C96
1C93 4C EA 0C JMP &0CEA
1C96 20 32 0F JSR &0F32
1C99 85 8B    STA &8B
1C9B F0 03    BEQ &1CA0
1C9D 4C C2 0D JMP &0DC2
1CA0 A5 96    LDA &96
1CA2 F0 01    BEQ &1CA5
1CA4 60       RTS
1CA5 A5 86    LDA &86
1CA7 4A       LSR A
1CA8 F0 04    BEQ &1CAE
1CAA A5 92    LDA &92
1CAC 85 86    STA &86
1CAE A5 8F    LDA &8F
1CB0 D0 38    BNE &1CEA
1CB2 A9 05    LDA #&05          ; Check keys ----
1CB4 20 EB 0B JSR &0BEB
1CB7 F0 66    BEQ &1D1F
1CB9 A9 04    LDA #&04
1CBB 20 EB 0B JSR &0BEB
1CBE D0 0E    BNE &1CCE
1CC0 A9 00    LDA #&00
1CC2 20 EB 0B JSR &0BEB
1CC5 F0 55    BEQ &1D1C
1CC7 A9 01    LDA #&01
1CC9 20 EB 0B JSR &0BEB
1CCC F0 4E    BEQ &1D1C
1CCE A9 02    LDA #&02
1CD0 20 EB 0B JSR &0BEB
1CD3 D0 0E    BNE &1CE3
1CD5 A9 00    LDA #&00
1CD7 20 EB 0B JSR &0BEB
1CDA F0 3D    BEQ &1D19
1CDC A9 01    LDA #&01
1CDE 20 EB 0B JSR &0BEB
1CE1 F0 36    BEQ &1D19
1CE3 A9 04    LDA #&04
1CE5 20 EB 0B JSR &0BEB
1CE8 F0 2C    BEQ &1D16
1CEA A9 00    LDA #&00
1CEC 20 EB 0B JSR &0BEB
1CEF D0 03    BNE &1CF4
1CF1 4C 20 0B JMP &0B20
1CF4 A9 01    LDA #&01
1CF6 20 EB 0B JSR &0BEB         ; --- End check keys
1CF9 D0 03    BNE &1CFE
1CFB 4C 22 0D JMP &0D22
1CFE 4C 05 0D JMP &0D05
1D01 A9 00    LDA #&00
1D03 85 88    STA &88
1D05 A5 88    LDA &88
1D07 D0 0C    BNE &1D15
1D09 85 89    STA &89
1D0B A5 81    LDA &81
1D0D 29 FE    AND #&FE
1D0F 85 81    STA &81
1D11 A9 80    LDA #&80
1D13 85 87    STA &87
1D15 60       RTS
1D16 4C D1 0A JMP &0AD1
1D19 4C AF 09 JMP &09AF
1D1C 4C 39 0A JMP &0A39
1D1F 4C 99 0A JMP &0A99
1D22 A5 88    LDA &88
1D24 D0 06    BNE &1D2C
1D26 A9 01    LDA #&01
1D28 C5 86    CMP &86
1D2A D0 18    BNE &1D44
1D2C 20 62 0E JSR &0E62
1D2F F0 01    BEQ &1D32
1D31 60       RTS
1D32 E6 80    INC &80
1D34 A5 88    LDA &88
1D36 F0 03    BEQ &1D3B
1D38 4C 34 0B JMP &0B34
1D3B A5 87    LDA &87
1D3D 29 07    AND #&07
1D3F AA       TAX
1D40 E8       INX
1D41 4C 3D 0B JMP &0B3D
1D44 85 86    STA &86
1D46 A2 80    LDX #&80
1D48 D0 F7    BNE &1D41
1D4A A5 96    LDA &96
1D4C D0 1B    BNE &1D69
1D4E A5 8F    LDA &8F
1D50 D0 17    BNE &1D69
1D52 A5 14    LDA &14
1D54 D0 14    BNE &1D6A
1D56 A5 81    LDA &81
1D58 48       PHA
1D59 38       SEC
1D5A E9 12    SBC #&12
1D5C 85 81    STA &81
1D5E 20 B3 0F JSR &0FB3
1D61 AA       TAX
1D62 68       PLA
1D63 85 81    STA &81
1D65 E0 00    CPX #&00
1D67 F0 01    BEQ &1D6A
1D69 60       RTS
1D6A 20 32 0F JSR &0F32
1D6D D0 33    BNE &1DA2
1D6F A9 05    LDA #&05
1D71 85 89    STA &89
1D73 A9 0A    LDA #&0A
1D75 85 8A    STA &8A
1D77 A9 00    LDA #&00
1D79 60       RTS
1D7A 20 05 10 JSR &1005
1D7D D0 22    BNE &1DA1
1D7F 20 F5 0F JSR &0FF5
1D82 D0 C6    BNE &1D4A
1D84 A5 86    LDA &86
1D86 C9 02    CMP #&02
1D88 B0 02    BCS &1D8C
1D8A 85 92    STA &92
1D8C A9 02    LDA #&02
1D8E 85 86    STA &86
1D90 E6 87    INC &87
1D92 C6 81    DEC &81
1D94 C6 81    DEC &81
1D96 A9 05    LDA #&05
1D98 85 8F    STA &8F
1D9A 20 C9 0D JSR &0DC9
1D9D A9 00    LDA #&00
1D9F 85 8B    STA &8B
1DA1 60       RTS
1DA2 20 B3 0F JSR &0FB3
1DA5 D0 21    BNE &1DC8
1DA7 20 14 0F JSR &0F14
1DAA D0 1C    BNE &1DC8
1DAC A5 86    LDA &86
1DAE 4A       LSR A
1DAF D0 04    BNE &1DB5
1DB1 A5 86    LDA &86
1DB3 85 92    STA &92
1DB5 A9 03    LDA #&03
1DB7 85 86    STA &86
1DB9 E6 87    INC &87
1DBB 20 C9 0D JSR &0DC9
1DBE A9 00    LDA #&00
1DC0 85 8B    STA &8B
1DC2 E6 81    INC &81
1DC4 E6 81    INC &81
1DC6 A9 00    LDA #&00
1DC8 60       RTS
1DC9 A5 34    LDA &34
1DCB D0 FB    BNE &1DC8         ; Have we counted down footstep sound delay?
1DCD A5 14    LDA &14
1DCF F0 F7    BEQ &1DC8
1DD1 A5 35    LDA &35           ; Not sure what &14 / &35 are atm
1DD3 F0 F3    BEQ &1DC8
1DD5 A9 06    LDA #&06          ; Reset footstep sound delay...
1DD7 85 34    STA &34           ; ... stored at &34
1DD9 A9 07    LDA #&07
1DDB A2 E2    LDX #&E2
1DDD A0 0D    LDY #&0D          ; And play a sound via OSWORD...
1DDF 4C F1 FF JMP &FFF1         ; ... block at &DE2, which follows..
1DE2 12 00    ORA (00)
1DE4 11 00    ORA (&00),Y
1DE6 F1 FF    SBC (&FF),Y
1DE8 00       BRK
1DE9 00       BRK               ; 8 bytes of sound data ends here
1DEA A5 86    LDA &86
1DEC D0 03    BNE &1DF1
1DEE 4C F4 0D JMP &0DF4
1DF1 4C 62 0E JMP &0E62
1DF4 A6 80    LDX &80
1DF6 CA       DEX
1DF7 30 04    BMI &1DFD
1DF9 8A       TXA
1DFA 4C 6B 0E JMP &0E6B
1DFD A5 14    LDA &14
1DFF D0 03    BNE &1E04
1E01 4C F2 0F JMP &0FF2
1E04 C6 13    DEC &13
1E06 18       CLC
1E07 A5 80    LDA &80
1E09 69 4B    ADC #&4B
1E0B 85 80    STA &80
1E0D A5 8C    LDA &8C
1E0F 69 4B    ADC #&4B
1E11 85 8C    STA &8C
1E13 A6 13    LDX &13
1E15 E0 04    CPX #&04
1E17 D0 0D    BNE &1E26
1E19 38       SEC
1E1A A5 81    LDA &81
1E1C E9 08    SBC #&08
1E1E 85 81    STA &81
1E20 A5 8D    LDA &8D
1E22 E9 08    SBC #&08
1E24 85 8D    STA &8D
1E26 E0 08    CPX #&08
1E28 D0 20    BNE &1E4A
1E2A A5 81    LDA &81
1E2C C9 AA    CMP #&AA
1E2E B0 0D    BCS &1E3D
1E30 69 40    ADC #&40
1E32 85 81    STA &81
1E34 A5 8D    LDA &8D
1E36 69 40    ADC #&40
1E38 85 8D    STA &8D
1E3A 4C 5B 0E JMP &0E5B
1E3D E9 10    SBC #&10
1E3F 85 81    STA &81
1E41 A5 8D    LDA &8D
1E43 E9 10    SBC #&10
1E45 85 8D    STA &8D
1E47 4C 5B 0E JMP &0E5B
1E4A E0 05    CPX #&05
1E4C D0 0D    BNE &1E5B
1E4E 18       CLC
1E4F A5 81    LDA &81
1E51 69 20    ADC #&20
1E53 85 81    STA &81
1E55 A5 8D    LDA &8D
1E57 69 20    ADC #&20
1E59 85 8D    STA &8D
1E5B A9 FF    LDA #&FF
1E5D 85 22    STA &22
1E5F 4C F2 0F JMP &0FF2
1E62 18       CLC
1E63 A5 80    LDA &80
1E65 69 04    ADC #&04
1E67 C9 4F    CMP #&4F
1E69 B0 43    BCS &1EAE
1E6B 85 0D    STA &0D
1E6D A5 81    LDA &81
1E6F 85 0E    STA &0E
1E71 20 95 0E JSR &0E95
1E74 D0 16    BNE &1E8C
1E76 A9 08    LDA #&08
1E78 20 8D 0E JSR &0E8D
1E7B D0 0F    BNE &1E8C
1E7D A9 10    LDA #&10
1E7F 20 8D 0E JSR &0E8D
1E82 D0 08    BNE &1E8C
1E84 A9 19    LDA #&19
1E86 4C 8D 0E JMP &0E8D
1E89 20 95 0E JSR &0E95
1E8C 60       RTS
1E8D 18       CLC
1E8E 65 81    ADC &81
1E90 85 0E    STA &0E
1E92 4C 95 0E JMP &0E95
1E95 20 07 20 JSR &2007
1E98 F0 0C    BEQ &1EA6
1E9A A0 06    LDY #&06
1E9C D9 A7 0E CMP &0EA7,Y
1E9F F0 05    BEQ &1EA6
1EA1 88       DEY
1EA2 10 F8    BPL &1E9C
1EA4 A9 FF    LDA #&FF
1EA6 60       RTS
1EA7 08       PHP
1EA8 09 0A    ORA #&0A
1EAA 0B       ???
1EAB 0C 0D 0E TSB &0E0D
1EAE A5 14    LDA &14
1EB0 D0 03    BNE &1EB5
1EB2 4C F2 0F JMP &0FF2
1EB5 E6 13    INC &13
1EB7 38       SEC
1EB8 A5 80    LDA &80
1EBA E9 4C    SBC #&4C
1EBC 85 80    STA &80
1EBE A5 8C    LDA &8C
1EC0 E9 4C    SBC #&4C
1EC2 85 8C    STA &8C
1EC4 A6 13    LDX &13
1EC6 E0 05    CPX #&05
1EC8 D0 0D    BNE &1ED7
1ECA 18       CLC
1ECB A5 81    LDA &81
1ECD 69 08    ADC #&08
1ECF 85 81    STA &81
1ED1 A5 8D    LDA &8D
1ED3 69 08    ADC #&08
1ED5 85 8D    STA &8D
1ED7 E0 09    CPX #&09
1ED9 D0 22    BNE &1EFD
1EDB A5 81    LDA &81
1EDD C9 AA    CMP #&AA
1EDF B0 0E    BCS &1EEF
1EE1 38       SEC
1EE2 E9 40    SBC #&40
1EE4 85 81    STA &81
1EE6 A5 8D    LDA &8D
1EE8 E9 40    SBC #&40
1EEA 85 8D    STA &8D
1EEC 4C 5B 0E JMP &0E5B
1EEF 18       CLC
1EF0 69 10    ADC #&10
1EF2 85 81    STA &81
1EF4 A5 8D    LDA &8D
1EF6 69 10    ADC #&10
1EF8 85 8D    STA &8D
1EFA 4C 5B 0E JMP &0E5B
1EFD E0 06    CPX #&06
1EFF D0 0D    BNE &1F0E
1F01 38       SEC
1F02 A5 81    LDA &81
1F04 E9 20    SBC #&20
1F06 85 81    STA &81
1F08 A5 8D    LDA &8D
1F0A E9 20    SBC #&20
1F0C 85 8D    STA &8D
1F0E 4C 5B 0E JMP &0E5B
1F11 A9 FF    LDA #&FF
1F13 60       RTS
1F14 A5 81    LDA &81
1F16 C9 E6    CMP #&E6
1F18 B0 4D    BCS &1F67
1F1A 69 1A    ADC #&1A
1F1C 85 0E    STA &0E
1F1E A5 80    LDA &80
1F20 85 0D    STA &0D
1F22 20 95 0E JSR &0E95
1F25 D0 0A    BNE &1F31
1F27 18       CLC
1F28 A5 80    LDA &80
1F2A 69 03    ADC #&03
1F2C 85 0D    STA &0D
1F2E 20 95 0E JSR &0E95
1F31 60       RTS
1F32 A5 81    LDA &81
1F34 C9 E6    CMP #&E6
1F36 B0 2F    BCS &1F67
1F38 69 1A    ADC #&1A
1F3A 85 0E    STA &0E
1F3C A5 80    LDA &80
1F3E 85 0D    STA &0D
1F40 20 07 20 JSR &2007
1F43 F0 08    BEQ &1F4D
1F45 C9 08    CMP #&08
1F47 F0 04    BEQ &1F4D
1F49 C9 0A    CMP #&0A
1F4B D0 17    BNE &1F64
1F4D 18       CLC
1F4E A5 80    LDA &80
1F50 69 03    ADC #&03
1F52 85 0D    STA &0D
1F54 20 07 20 JSR &2007
1F57 F0 08    BEQ &1F61
1F59 C9 08    CMP #&08
1F5B F0 04    BEQ &1F61
1F5D C9 0A    CMP #&0A
1F5F D0 03    BNE &1F64
1F61 A9 FF    LDA #&FF
1F63 60       RTS
1F64 A9 00    LDA #&00
1F66 60       RTS
1F67 A5 14    LDA &14
1F69 D0 0A    BNE &1F75
1F6B A9 FF    LDA #&FF
1F6D 85 93    STA &93
1F6F A9 06    LDA #&06
1F71 85 89    STA &89
1F73 D0 EC    BNE &1F61
1F75 38       SEC
1F76 A5 81    LDA &81
1F78 29 FC    AND #&FC
1F7A E9 C2    SBC #&C2
1F7C 85 81    STA &81
1F7E A5 8D    LDA &8D
1F80 29 FC    AND #&FC
1F82 E9 C2    SBC #&C2
1F84 85 8D    STA &8D
1F86 18       CLC
1F87 A5 13    LDA &13
1F89 69 04    ADC #&04
1F8B 85 13    STA &13
1F8D 4C 41 10 JMP &1041
1F90 A9 00    LDA #&00
1F92 85 88    STA &88
1F94 20 07 20 JSR &2007
1F97 A2 FF    LDX #&FF
1F99 A0 06    LDY #&06
1F9B D9 A7 0E CMP &0EA7,Y
1F9E F0 0C    BEQ &1FAC
1FA0 88       DEY
1FA1 30 08    BMI &1FAB
1FA3 C0 04    CPY #&04
1FA5 D0 F4    BNE &1F9B
1FA7 A2 01    LDX #&01
1FA9 D0 F0    BNE &1F9B
1FAB 60       RTS
1FAC 86 88    STX &88
1FAE 68       PLA
1FAF 68       PLA
1FB0 A9 00    LDA #&00
1FB2 60       RTS
1FB3 A6 80    LDX &80
1FB5 86 0D    STX &0D
1FB7 18       CLC
1FB8 A5 81    LDA &81
1FBA 69 13    ADC #&13
1FBC 85 0E    STA &0E
1FBE 20 90 0F JSR &0F90
1FC1 18       CLC
1FC2 A5 81    LDA &81
1FC4 69 1A    ADC #&1A
1FC6 85 0E    STA &0E
1FC8 20 90 0F JSR &0F90
1FCB E6 0D    INC &0D
1FCD E6 0D    INC &0D
1FCF E6 0D    INC &0D
1FD1 20 90 0F JSR &0F90
1FD4 18       CLC
1FD5 A5 81    LDA &81
1FD7 69 13    ADC #&13
1FD9 85 0E    STA &0E
1FDB 20 90 0F JSR &0F90
1FDE 18       CLC
1FDF A5 81    LDA &81
1FE1 69 03    ADC #&03
1FE3 85 0E    STA &0E
1FE5 20 90 0F JSR &0F90
1FE8 A5 80    LDA &80
1FEA 85 0D    STA &0D
1FEC 20 90 0F JSR &0F90
1FEF A9 FF    LDA #&FF
1FF1 60       RTS
1FF2 A9 00    LDA #&00
1FF4 60       RTS
1FF5 A5 81    LDA &81
1FF7 48       PHA
1FF8 C6 81    DEC &81
1FFA C6 81    DEC &81
1FFC 20 B3 0F JSR &0FB3
1FFF AA       TAX
2000 68       PLA
2001 85 81    STA &81
2003 8A       TXA
2004 60       RTS
2005 A5 81    LDA &81
2007 C9 22    CMP #&22
2009 90 07    BCC &2012
200B E9 02    SBC #&02
200D 85 0E    STA &0E
200F 4C 1E 0F JMP &0F1E
2012 A5 14    LDA &14
2014 D0 03    BNE &2019
2016 4C F2 0F JMP &0FF2
2019 38       SEC
201A A5 13    LDA &13
201C E9 04    SBC #&04
201E 85 13    STA &13
2020 C9 06    CMP #&06
2022 D0 10    BNE &2034
2024 18       CLC
2025 A5 81    LDA &81
2027 69 A6    ADC #&A6
2029 85 81    STA &81
202B A5 8D    LDA &8D
202D 69 A6    ADC #&A6
202F 85 8D    STA &8D
2031 4C 41 10 JMP &1041
2034 18       CLC
2035 A5 81    LDA &81
2037 69 B6    ADC #&B6
2039 85 81    STA &81
203B A5 8D    LDA &8D
203D 69 B6    ADC #&B6
203F 85 8D    STA &8D
2041 E6 22    INC &22
2043 4C 4E 09 JMP &094E
2046 31 0D    AND (&0D),Y
2048 04 1A    TSB &1A
204A 14 44    TRB &44
204C 45 58    EOR &58
204E 3A       DEC A
204F 42       ???
2050 4E 45 20 LSR &2045
2053 6C 6F 63 JMP (&636F)
2056 5F       ???
2057 6C 6F A5 JMP (&A56F)
205A 93       ???
205B F0 69    BEQ &20C6
205D AD AA 15 LDA &15AA
2060 C9 5A    CMP #&5A
2062 90 02    BCC &2066
2064 A9 00    LDA #&00
2066 85 7B    STA &7B
2068 AD 91 15 LDA &1591
206B C9 5A    CMP #&5A
206D 90 02    BCC &2071
206F A9 00    LDA #&00
2071 85 7C    STA &7C
2073 18       CLC
2074 A5 7B    LDA &7B
2076 69 08    ADC #&08
2078 C5 7C    CMP &7C
207A 90 4A    BCC &20C6
207C A5 7C    LDA &7C
207E 69 07    ADC #&07
2080 C5 7B    CMP &7B
2082 90 42    BCC &20C6
2084 AD AB 15 LDA &15AB
2087 69 2E    ADC #&2E
2089 90 02    BCC &208D
208B A9 FF    LDA #&FF
208D CD 92 15 CMP &1592
2090 90 34    BCC &20C6
2092 AD 92 15 LDA &1592
2095 69 2D    ADC #&2D
2097 90 02    BCC &209B
2099 A9 FF    LDA #&FF
209B CD AB 15 CMP &15AB
209E 90 26    BCC &20C6
20A0 20 05 11 JSR &1105
20A3 AD AB 15 LDA &15AB
20A6 CD 92 15 CMP &1592
20A9 B0 03    BCS &20AE
20AB AD 92 15 LDA &1592
20AE 20 24 13 JSR &1324
20B1 20 21 1B JSR &1B21
20B4 20 13 11 JSR &1113
20B7 20 E6 10 JSR &10E6
20BA 20 05 11 JSR &1105
20BD 20 5A 1B JSR &1B5A
20C0 20 0C 11 JSR &110C
20C3 4C DE 1D JMP &1DDE
20C6 20 05 11 JSR &1105
20C9 A5 81    LDA &81
20CB 20 24 13 JSR &1324
20CE 20 21 1B JSR &1B21
20D1 20 5A 1B JSR &1B5A
20D4 20 0C 11 JSR &110C
20D7 A5 28    LDA &28
20D9 F0 FC    BEQ &20D7
20DB 20 DE 1D JSR &1DDE
20DE 20 13 11 JSR &1113
20E1 A5 81    LDA &81
20E3 20 24 13 JSR &1324
20E6 A6 93    LDX &93
20E8 F0 07    BEQ &20F1
20EA E8       INX
20EB D0 07    BNE &20F4
20ED A2 FE    LDX #&FE
20EF 86 93    STX &93
20F1 20 21 1B JSR &1B21
20F4 A6 93    LDX &93
20F6 F0 07    BEQ &20FF
20F8 CA       DEX
20F9 D0 07    BNE &2102
20FB 86 93    STX &93
20FD 86 89    STX &89
20FF 20 5A 1B JSR &1B5A
2102 4C 2D 11 JMP &112D
2105 A2 AA    LDX #&AA          ; X/Y = &15AA
2107 A0 15    LDY #&15
2109 4C 17 11 JMP &1117         ; Skip straight to &2117
210C A2 AA    LDX #&AA          ; This is JMP/JSR into from a variety of places
210E A0 15    LDY #&15
2110 4C 31 11 JMP &1131
2113 A2 91    LDX #&91
2115 A0 15    LDY #&15
2117 86 7B    STX &7B
2119 84 7C    STY &7C           ; &7B/&7C -> &15AA
211B A9 80    LDA #&80
211D 85 7D    STA &7D
211F A9 00    LDA #&00
2121 85 7E    STA &7E           ; &7D/&7E -> &0080
2123 A0 18    LDY #&18          ; Copy 25 bytes to &80, last byte at &98
2125 B1 7B    LDA (&7B),Y
2127 91 7D    STA (&7D),Y
2129 88       DEY
212A 10 F9    BPL &2125         ; Copied all bytes?
212C 60       RTS
212D A2 91    LDX #&91
212F A0 15    LDY #&15
2131 86 7D    STX &7D           ; Begin drawing level?
2133 84 7E    STY &7E
2135 A9 80    LDA #&80
2137 85 7B    STA &7B
2139 A9 00    LDA #&00
213B 85 7C    STA &7C
213D A0 16    LDY #&16
213F D0 E4    BNE &2125
2141 A5 21    LDA &21           ; &21 = some sort of palette/tile flag?
2143 29 FE    AND #&FE          ; Mask off LSB
2145 AA       TAX
2146 BD B4 26 LDA &26B4,X
2149 8D 9B 11 STA &119B        ; Self modify the LDA below
214C BD B5 26 LDA &26B5,X
214F 8D 9C 11 STA &119C        ; Self modify the LDA below
2152 A5 21    LDA &21
2154 29 01    AND #&01         ; Leave only LSB
2156 4C 6D 11 JMP &116D        ; and jump to 116D..
2159 A2 00    LDX #&00
215B A0 00    LDY #&00
215D A5 00    LDA &00
215F 29 07    AND #&07
2161 85 0A    STA &0A
2163 A9 08    LDA #&08
2165 38       SEC
2166 E5 0A    SBC &0A
2168 85 7C    STA &7C
216A 60       RTS
216B A9 FF    LDA #&FF          ; Entry point for waterfall and smokebelch (I think)
216D 85 21    STA &21           ; .. store 255 at &21
216F 20 59 11 JSR &1159
2172 A5 00    LDA &00           ; Save a copy of the top of this character
2174 85 06    STA &06           ; (screen address, eg. &4E00, &4E08..), from
2176 A5 01    LDA &01           ; its work pointers at &00/&01 to &06/&07
2178 85 07    STA &07
217A A5 7C    LDA &7C
217C 85 0A    STA &0A           ; &0A = &7C
217E 20 12 13 JSR &1312
2181 F0 69    BEQ &21EC         ; If 0, skip over all this to the +8 bit
2183 A5 0C    LDA &0C
2185 85 09    STA &09
2187 A1 00    LDA (&00,X)       ; Read a screen byte
2189 91 97    STA (&97),Y
218B B1 02    LDA (&02),Y       ; Read a tile data byte
218D A6 21    LDX &21
218F 30 0C    BMI &219D         ; When in game this is BMI &119D, heh
2191 F0 04    BEQ &2197         ; If X=0, don't shift and go straight to mask #&0F
2193 4A       LSR A
2194 4A       LSR A
2195 4A       LSR A
2196 4A       LSR A             ; Rotate right four times
2197 29 0F    AND #&0F          ; Mask off top 4 bits..
2199 AA       TAX               ; ...  and use as index
219A BD FF FF LDA &FFFF,X       ; Self-modified to point somewhere like &26D4
219D A2 00    LDX #&00
219F C9 C0    CMP #&C0          ; Last entry?
21A1 F0 15    BEQ &21B8         ; If so, jump to &21B8
21A3 85 7B    STA &7B           ; Store the retrieved table value at &7B
21A5 29 AA    AND #&AA          ; Mask with %1010'1010
21A7 C9 80    CMP #&80
21A9 F0 24    BEQ &21CF         ; If &80, jump to &21CF
21AB A5 7B    LDA &7B           ; Load &7B
21AD 29 55    AND #&55          ; Mask with %0101'0101
21AF C9 40    CMP #&40          ; If &40, jump to &21C1
21B1 F0 0E    BEQ &21C1
21B3 A5 7B    LDA &7B           ; Load &7B
21B5 4C DB 11 JMP &11DB         ; Jump straight to store at &21DB
21B8 A1 00    LDA (&00,X)
21BA 4C DB 11 JMP &11DB         ; Jump straight to store at &21DB
21BD C9 80    CMP #&80
21BF B0 0E    BCS &21CF
21C1 A5 7B    LDA &7B           ; Load &7B
21C3 29 AA    AND #&AA          ; Mask with %1010'1010
21C5 85 7B    STA &7B           ; Store back at &7B
21C7 A1 00    LDA (&00,X)       ; Load a byte from screen
21C9 29 55    AND #&55          ; Mask with %0101'0101
21CB 05 7B    ORA &7B           ; OR with &7B
21CD D0 0C    BNE &21DB         ; If not 0, skip following block..
21CF A5 7B    LDA &7B           ;  Load &7B
21D1 29 55    AND #&55          ;  Mask wtih %0101'0101
21D3 85 7B    STA &7B           ;  Store back at &7B
21D5 A1 00    LDA (&00,X)       ;  Load a byte from screen
21D7 29 AA    AND #&AA          ;  Mask with %1010'1010
21D9 05 7B    ORA &7B           ;  OR with &7B
21DB 81 00    STA (&00,X)       ; Store back to screen
21DD C8       INY
21DE D0 02    BNE &21E2         ; If Y isn't 0, skip following block..
21E0 E6 03    INC &03           ;  Increment &03
21E2 C6 0A    DEC &0A           ; Decrement &0A
21E4 F0 1D    BEQ &2203         ; Skip to &2203 if &0A is 0
21E6 E6 00    INC &00           ; Move pointer at (&00/&01) to next screen byte
21E8 C6 09    DEC &09           ; Decrement &09
21EA D0 9B    BNE &2187         ; If not 0, loop back round
21EC 18       CLC
21ED A5 06    LDA &06
21EF 69 08    ADC #&08          ; Base pointer at &06/&07, so we add 8 on...
21F1 85 00    STA &00
21F3 A5 07    LDA &07           
21F5 69 00    ADC #&00
21F7 85 01    STA &01           ; ...and store to &00/&01
21F9 E6 04    INC &04           ; Inc &04 - not sure what this is
21FB C6 08    DEC &08           ; Dec &08 - not sure what this is? loop count?
21FD F0 03    BEQ &2202         ; Exit if 0
21FF 4C 72 11 JMP &1172         ; Jump back round (&2172 here)
2202 60       RTS               ; Exit
2203 18       CLC
2204 A5 00    LDA &00
2206 69 79    ADC #&79
2208 85 00    STA &00
220A A5 01    LDA &01
220C 69 02    ADC #&02
220E 85 01    STA &01
2210 A9 08    LDA #&08
2212 85 0A    STA &0A
2214 D0 D2    BNE &21E8
2216 18       CLC
2217 A5 02    LDA &02
2219 65 1F    ADC &1F
221B 85 02    STA &02
221D A5 03    LDA &03
221F 69 00    ADC #&00
2221 85 03    STA &03
2223 20 59 11 JSR &1159
2226 A5 0C    LDA &0C
2228 0A       ASL A
2229 85 7D    STA &7D
222B 38       SEC
222C A5 02    LDA &02
222E E5 7D    SBC &7D
2230 85 02    STA &02
2232 A5 03    LDA &03
2234 E9 00    SBC #&00
2236 85 03    STA &03
2238 A5 00    LDA &00
223A 85 06    STA &06
223C A5 01    LDA &01
223E 85 07    STA &07
2240 A5 7C    LDA &7C
2242 85 0A    STA &0A
2244 20 A9 12 JSR &12A9
2247 F0 39    BEQ &2282
2249 A5 0C    LDA &0C
224B 85 09    STA &09
224D A1 00    LDA (&00,X)
224F 91 97    STA (&97),Y
2251 A1 02    LDA (&02,X)
2253 29 AA    AND #&AA
2255 4A       LSR A
2256 C9 40    CMP #&40
2258 D0 04    BNE &225E
225A A1 00    LDA (&00,X)
225C 29 55    AND #&55          ; Player sprite routine I think
225E 85 7B    STA &7B
2260 A1 02    LDA (&02,X)
2262 29 55    AND #&55
2264 0A       ASL A
2265 C9 80    CMP #&80
2267 D0 04    BNE &226D
2269 A1 00    LDA (&00,X)
226B 29 AA    AND #&AA
226D 05 7B    ORA &7B
226F 81 00    STA (&00,X)
2271 C8       INY
2272 E6 02    INC &02
2274 D0 02    BNE &2278
2276 E6 03    INC &03
2278 C6 0A    DEC &0A
227A F0 1A    BEQ &2296
227C E6 00    INC &00
227E C6 09    DEC &09
2280 D0 CB    BNE &224D
2282 18       CLC
2283 A5 06    LDA &06
2285 69 08    ADC #&08
2287 85 00    STA &00
2289 A5 07    LDA &07
228B 69 00    ADC #&00
228D 85 01    STA &01
228F E6 04    INC &04
2291 C6 08    DEC &08
2293 D0 96    BNE &222B
2295 60       RTS
2296 18       CLC
2297 A5 00    LDA &00
2299 69 79    ADC #&79
229B 85 00    STA &00
229D A5 01    LDA &01
229F 69 02    ADC #&02
22A1 85 01    STA &01
22A3 A9 08    LDA #&08
22A5 85 0A    STA &0A
22A7 D0 D5    BNE &227E
22A9 A5 04    LDA &04
22AB C9 50    CMP #&50
22AD B0 01    BCS &22B0
22AF 60       RTS
22B0 18       CLC
22B1 98       TYA
22B2 65 0C    ADC &0C
22B4 A8       TAY
22B5 A5 02    LDA &02
22B7 65 0C    ADC &0C
22B9 85 02    STA &02
22BB A5 03    LDA &03
22BD 69 00    ADC #&00
22BF 85 03    STA &03
22C1 A9 00    LDA #&00
22C3 60       RTS
22C4 20 59 11 JSR &1159
22C7 A5 00    LDA &00
22C9 85 06    STA &06
22CB A5 01    LDA &01
22CD 85 07    STA &07
22CF A5 7C    LDA &7C
22D1 85 0A    STA &0A
22D3 20 12 13 JSR &1312
22D6 F0 13    BEQ &22EB
22D8 A5 0C    LDA &0C
22DA 85 09    STA &09
22DC B1 02    LDA (&02),Y
22DE 81 00    STA (&00,X)
22E0 C8       INY
22E1 C6 0A    DEC &0A
22E3 F0 1A    BEQ &22FF
22E5 E6 00    INC &00
22E7 C6 09    DEC &09
22E9 D0 F1    BNE &22DC
22EB 18       CLC
22EC A5 06    LDA &06
22EE 69 08    ADC #&08
22F0 85 00    STA &00
22F2 A5 07    LDA &07
22F4 69 00    ADC #&00
22F6 85 01    STA &01
22F8 E6 04    INC &04
22FA C6 08    DEC &08
22FC D0 C9    BNE &22C7
22FE 60       RTS
22FF 18       CLC
2300 A5 00    LDA &00
2302 69 79    ADC #&79
2304 85 00    STA &00
2306 A5 01    LDA &01
2308 69 02    ADC #&02
230A 85 01    STA &01
230C A9 08    LDA #&08
230E 85 0A    STA &0A
2310 D0 D5    BNE &22E7
2312 A5 04    LDA &04
2314 C9 50    CMP #&50
2316 B0 01    BCS &2319
2318 60       RTS
2319 18       CLC
231A 98       TYA
231B 65 0C    ADC &0C
231D A8       TAY
231E A9 00    LDA #&00
2320 60       RTS
2321 68       PLA
2322 68       PLA
2323 60       RTS
2324 18       CLC
2325 69 29    ADC #&29
2327 4A       LSR A
2328 4A       LSR A
2329 4A       LSR A
232A 4A       LSR A
232B AA       TAX
232C A9 C5    LDA #&C5
232E 8D 4C FE STA &FE4C
2331 A9 E5    LDA #&E5
2333 8D 4C FE STA &FE4C
2336 A9 10    LDA #&10
2338 8D 00 FE STA &FE00
233B AD 01 FE LDA &FE01
233E 38       SEC
233F E9 06    SBC #&06
2341 DD 47 13 CMP &1347,X
2344 90 E6    BCC &232C
2346 60       RTS
2347 00       BRK
2348 01 01    ORA (&01,X)
234A 02       ???
234B 03       ???
234C 03       ???
234D 04 04    TSB &04
234F 05 06    ORA &06
2351 06 07    ASL &07
2353 08       PHP
2354 08       PHP
2355 09 09    ORA #&09
2357 A2 00    LDX #&00
2359 A0 02    LDY #&02
235B D0 04    BNE &2361
235D A2 02    LDX #&02
235F A0 00    LDY #&00
2361 84 14    STY &14
2363 A9 AA    LDA #&AA
2365 95 7B    STA 7B,X
2367 A9 15    LDA #&15
2369 95 7C    STA 7C,X
236B A9 91    LDA #&91
236D 99 7B 00 STA &007B,Y
2370 A9 15    LDA #&15
2372 99 7C 00 STA &007C,Y
2375 A0 09    LDY #&09
2377 B1 7B    LDA (&7B),Y
2379 D0 7F    BNE &22FA
237B A0 01    LDY #&01
237D B1 7B    LDA (&7B),Y
237F 38       SEC
2380 E9 10    SBC #&10
2382 D1 7D    CMP (&7D),Y
2384 B0 74    BCS &23FA
2386 B1 7D    LDA (&7D),Y
2388 E9 0F    SBC #&0F
238A D1 7B    CMP (&7B),Y
238C B0 6C    BCS &23FA
238E 88       DEY
238F B1 7B    LDA (&7B),Y
2391 38       SEC
2392 F1 7D    SBC (&7D),Y
2394 C9 07    CMP #&07
2396 90 04    BCC &239C
2398 C9 F9    CMP #&F9
239A 90 5E    BCC &23FA
239C A0 09    LDY #&09
239E B1 7B    LDA (&7B),Y
23A0 C9 07    CMP #&07
23A2 F0 56    BEQ &23FA
23A4 B1 7D    LDA (&7D),Y
23A6 85 7F    STA &7F
23A8 C9 02    CMP #&02
23AA F0 04    BEQ &23B0
23AC C9 04    CMP #&04
23AE D0 4A    BNE &23FA
23B0 A5 35    LDA &35
23B2 F0 09    BEQ &23BD
23B4 A9 07    LDA #&07
23B6 A2 FB    LDX #&FB
23B8 A0 13    LDY #&13
23BA 20 F1 FF JSR &FFF1
23BD A0 06    LDY #&06
23BF B1 7D    LDA (&7D),Y
23C1 49 01    EOR #&01
23C3 91 7B    STA (&7B),Y
23C5 A0 09    LDY #&09
23C7 A9 07    LDA #&07
23C9 91 7B    STA (&7B),Y
23CB A0 10    LDY #&10
23CD B1 7B    LDA (&7B),Y
23CF 18       CLC
23D0 69 01    ADC #&01
23D2 91 7B    STA (&7B),Y
23D4 A6 14    LDX &14
23D6 F0 09    BEQ &23E1
23D8 C9 03    CMP #&03
23DA 90 1E    BCC &23FA
23DC C6 1B    DEC &1B           ; Decrement number of lives (Death by Yamo?)
23DE 4C FC 1A JMP &1AFC
23E1 F8       SED
23E2 A5 7F    LDA &7F
23E4 C9 04    CMP #&04
23E6 F0 0E    BEQ &23F6
23E8 18       CLC
23E9 A5 15    LDA &15
23EB 69 75    ADC #&75
23ED 85 15    STA &15
23EF A5 16    LDA &16
23F1 69 00    ADC #&00
23F3 4C CE 18 JMP &18CE
23F6 18       CLC
23F7 4C CA 18 JMP &18CA
23FA 60       RTS
23FB 11 00    ORA (&00),Y
23FD 01 00    ORA (&00,X)
23FF 0A       ASL A
2400 00       BRK
2401 01 00    ORA (&00,X)
2403 A9 00    LDA #&00
2405 F0 02    BEQ &2409
2407 A9 01    LDA #&01
2409 85 86    STA &86
240B 4C 39 0A JMP &0A39
240E 20 F2 14 JSR &14F2
2411 A5 8F    LDA &8F
2413 F0 04    BEQ &2419
2415 C6 8F    DEC &8F
2417 D0 3B    BNE &2454
2419 A5 88    LDA &88
241B D0 37    BNE &2454
241D A5 8B    LDA &8B
241F D0 33    BNE &2454
2421 A5 86    LDA &86
2423 4A       LSR A
2424 F0 04    BEQ &242A
2426 A5 92    LDA &92
2428 85 86    STA &86
242A AD B3 15 LDA &15B3
242D C9 07    CMP #&07
242F F0 23    BEQ &2454
2431 38       SEC
2432 AD AB 15 LDA &15AB
2435 E9 10    SBC #&10
2437 C5 81    CMP &81
2439 B0 19    BCS &2454
243B A5 81    LDA &81
243D E9 0F    SBC #&0F
243F CD AB 15 CMP &15AB
2442 B0 10    BCS &2454
2444 38       SEC
2445 A5 80    LDA &80
2447 ED AA 15 SBC &15AA
244A 85 7B    STA &7B
244C C9 07    CMP #&07
244E F0 B3    BEQ &2403
2450 C9 F9    CMP #&F9
2452 F0 B3    BEQ &2407
2454 A5 80    LDA &80
2456 29 03    AND #&03
2458 D0 21    BNE &247B
245A A5 86    LDA &86
245C 4A       LSR A
245D D0 53    BNE &24B2
245F 20 7F 15 JSR &157F
2462 C9 80    CMP #&80
2464 B0 15    BCS &247B
2466 AD AB 15 LDA &15AB
2469 C5 81    CMP &81
246B F0 0E    BEQ &247B
246D B0 07    BCS &2476
246F 20 7A 0D JSR &0D7A
2472 F0 62    BEQ &24D6
2474 D0 05    BNE &247B
2476 20 A2 0D JSR &0DA2
2479 F0 5B    BEQ &24D6
247B A9 00    LDA #&00
247D 85 8B    STA &8B
247F A5 88    LDA &88
2481 D0 0A    BNE &248D
2483 20 32 0F JSR &0F32
2486 85 8B    STA &8B
2488 F0 03    BEQ &248D
248A 4C C2 0D JMP &0DC2
248D A5 13    LDA &13
248F C9 04    CMP #&04
2491 D0 0D    BNE &24A0
2493 A5 86    LDA &86
2495 D0 09    BNE &24A0
2497 A5 80    LDA &80
2499 C9 3C    CMP #&3C
249B B0 03    BCS &24A0
249D 4C AF 09 JMP &09AF
24A0 20 7F 15 JSR &157F
24A3 C9 F5    CMP #&F5
24A5 90 0B    BCC &24B2
24A7 20 7F 15 JSR &157F
24AA C9 40    CMP #&40
24AC B0 11    BCS &24BF
24AE 29 01    AND #&01
24B0 85 86    STA &86
24B2 A5 86    LDA &86
24B4 AA       TAX
24B5 F0 15    BEQ &24CC
24B7 CA       DEX
24B8 F0 1D    BEQ &24D7
24BA CA       DEX
24BB F0 B2    BEQ &246F
24BD D0 B7    BNE &2476
24BF 38       SEC
24C0 AD AA 15 LDA &15AA
24C3 E5 80    SBC &80
24C5 2A       ROL A
24C6 29 01    AND #&01
24C8 85 86    STA &86
24CA 10 E8    BPL &24B4
24CC 20 20 0B JSR &0B20
24CF F0 11    BEQ &24E2
24D1 20 22 0D JSR &0D22
24D4 F0 0C    BEQ &24E2
24D6 60       RTS
24D7 20 22 0D JSR &0D22
24DA F0 06    BEQ &24E2
24DC 4C 20 0B JMP &0B20
24DF F0 01    BEQ &24E2
24E1 60       RTS
24E2 20 32 0F JSR &0F32
24E5 D0 01    BNE &24E8
24E7 60       RTS
24E8 A5 81    LDA &81
24EA CD AB 15 CMP &15AB
24ED 90 21    BCC &2510
24EF 4C AF 09 JMP &09AF
24F2 A5 81    LDA &81
24F4 C9 1A    CMP #&1A
24F6 90 0E    BCC &2506
24F8 C9 E6    CMP #&E6
24FA B0 0A    BCS &2506
24FC A5 80    LDA &80
24FE C9 FC    CMP #&FC
2500 B0 0F    BCS &2511
2502 C9 50    CMP #&50
2504 90 0A    BCC &2510
2506 68       PLA
2507 68       PLA
2508 A9 06    LDA #&06
250A 85 89    STA &89
250C A9 FF    LDA #&FF
250E 85 93    STA &93
2510 60       RTS
2511 68       PLA
2512 68       PLA
2513 4C B2 14 JMP &14B2
2516 A9 06    LDA #&06
2518 85 89    STA &89
251A A9 00    LDA #&00
251C 85 96    STA &96
251E A5 13    LDA &13
2520 C9 09    CMP #&09
2522 B0 51    BCS &2575
2524 C9 03    CMP #&03
2526 F0 4D    BEQ &2575
2528 C9 07    CMP #&07
252A F0 49    BEQ &2575
252C A5 93    LDA &93
252E C9 FE    CMP #&FE
2530 D0 09    BNE &253B
2532 20 7F 15 JSR &157F
2535 29 3E    AND #&3E
2537 09 0E    ORA #&0E
2539 85 93    STA &93
253B C6 93    DEC &93
253D A6 93    LDX &93
253F CA       DEX
2540 D0 33    BNE &2575
2542 A5 13    LDA &13
2544 0A       ASL A
2545 85 7B    STA &7B
2547 0A       ASL A
2548 18       CLC
2549 65 7B    ADC &7B
254B AA       TAX
254C BD B4 20 LDA &20B4,X
254F 85 0F    STA &0F
2551 BD B5 20 LDA &20B5,X
2554 85 10    STA &10
2556 20 7F 15 JSR &157F
2559 A0 00    LDY #&00
255B 8C A7 15 STY &15A7
255E 31 0F    AND (&0F),Y
2560 A8       TAY
2561 C8       INY
2562 B1 0F    LDA (&0F),Y
2564 C8       INY
2565 85 80    STA &80
2567 B1 0F    LDA (&0F),Y
2569 C8       INY
256A 85 81    STA &81
256C B1 0F    LDA (&0F),Y
256E C8       INY
256F 85 86    STA &86
2571 B1 0F    LDA (&0F),Y
2573 85 87    STA &87
2575 60       RTS
2576 A2 2A    LDX #&2A
2578 A0 00    LDY #&00
257A A9 01    LDA #&01
257C 4C F1 FF JMP &FFF1
257F A5 2A    LDA &2A
2581 29 42    AND #&42
2583 18       CLC
2584 69 3E    ADC #&3E
2586 0A       ASL A
2587 0A       ASL A
2588 26 2C    ROL &2C
258A 26 2B    ROL &2B
258C 26 2A    ROL &2A
258E A5 2A    LDA &2A
2590 60       RTS
2591 C8       INY
2592 46 00    LSR &00
2594 80 05    BRA &259B
2596 1A       INC A
2597 00       BRK
2598 80 00    BRA &259A
259A 06 00    ASL &00
259C 00       BRK
259D 00       BRK
259E 00       BRK
259F 00       BRK
25A0 00       BRK
25A1 00       BRK
25A2 00       BRK
25A3 00       BRK
25A4 FE A0 16 INC &16A0,X
25A7 00       BRK
25A8 40       RTI
25A9 07       ???
25AA 08       PHP
25AB 46 00    LSR &00
25AD 80 05    BRA &25B4
25AF 1A       INC A
25B0 01 80    ORA (&80,X)
25B2 00       BRK
25B3 00       BRK
25B4 00       BRK
25B5 00       BRK
25B6 00       BRK
25B7 00       BRK
25B8 00       BRK
25B9 00       BRK
25BA 00       BRK
25BB 00       BRK
25BC 01 05    ORA (&05,X)
25BE D2 16    CMP (16)
25C0 00       BRK
25C1 80 06    BRA &25C9
25C3 A9 FF    LDA #&FF
25C5 85 31    STA &31
25C7 A9 04    LDA #&04
25C9 85 1B    STA &1B           ; Number of lives = 4
25CB A9 00    LDA #&00
25CD 85 26    STA &26
25CF 85 30    STA &30
25D1 85 12    STA &12
25D3 85 11    STA &11
25D5 85 29    STA &29
25D7 A0 0B    LDY #&0B
25D9 84 13    STY &13
25DB 84 33    STY &33
25DD 99 D9 1B STA &1BD9,Y
25E0 88       DEY
25E1 10 FA    BPL &25DD
25E3 A9 01    LDA #&01
25E5 85 25    STA &25
25E7 20 83 18 JSR &1883
25EA C6 13    DEC &13
25EC 10 F9    BPL &25E7
25EE A9 00    LDA #&00
25F0 85 33    STA &33
25F2 85 13    STA &13
25F4 20 CE 1A JSR &1ACE
25F7 20 FC 1A JSR &1AFC
25FA 4C 76 15 JMP &1576
25FD A9 00    LDA #&00
25FF 85 7C    STA &7C
2601 A5 0D    LDA &0D
2603 4A       LSR A
2604 4A       LSR A
2605 85 7B    STA &7B
2607 A5 0E    LDA &0E
2609 29 F8    AND #&F8
260B 48       PHA
260C 4A       LSR A
260D 65 7B    ADC &7B
260F 85 7B    STA &7B
2611 68       PLA
2612 0A       ASL A
2613 26 7C    ROL &7C
2615 18       CLC
2616 65 7B    ADC &7B
2618 85 7B    STA &7B
261A A5 7C    LDA &7C
261C 69 04    ADC #&04
261E 85 7C    STA &7C
2620 A9 00    LDA #&00
2622 18       CLC
2623 65 7B    ADC &7B
2625 85 7B    STA &7B
2627 A5 7C    LDA &7C
2629 69 00    ADC #&00
262B 85 7C    STA &7C
262D 60       RTS
262E A5 0D    LDA &0D
2630 C9 A0    CMP #&A0
2632 90 22    BCC &2656
2634 A9 00    LDA #&00
2636 E5 0D    SBC &0D
2638 85 00    STA &00
263A A9 00    LDA #&00
263C 06 00    ASL &00
263E 2A       ROL A
263F 06 00    ASL &00
2641 2A       ROL A
2642 06 00    ASL &00
2644 2A       ROL A
2645 85 01    STA &01
2647 38       SEC
2648 A9 00    LDA #&00
264A E5 00    SBC &00
264C 85 00    STA &00
264E A9 30    LDA #&30
2650 E5 01    SBC &01
2652 85 01    STA &01
2654 D0 0F    BNE &2665
2656 85 00    STA &00
2658 A9 06    LDA #&06
265A 06 00    ASL &00
265C 2A       ROL A
265D 06 00    ASL &00
265F 2A       ROL A
2660 06 00    ASL &00
2662 2A       ROL A
2663 85 01    STA &01
2665 A5 0E    LDA &0E
2667 29 07    AND #&07
2669 05 00    ORA &00
266B 85 00    STA &00
266D A9 00    LDA #&00
266F 85 7C    STA &7C
2671 A5 0E    LDA &0E
2673 29 F8    AND #&F8
2675 0A       ASL A
2676 26 7C    ROL &7C
2678 0A       ASL A
2679 26 7C    ROL &7C
267B 0A       ASL A
267C 26 7C    ROL &7C
267E 0A       ASL A
267F 26 7C    ROL &7C
2681 48       PHA
2682 18       CLC
2683 65 00    ADC &00
2685 85 00    STA &00
2687 A5 01    LDA &01
2689 65 7C    ADC &7C
268B 85 01    STA &01
268D 68       PLA
268E 0A       ASL A
268F 26 7C    ROL &7C
2691 0A       ASL A
2692 26 7C    ROL &7C
2694 18       CLC
2695 65 00    ADC &00
2697 85 00    STA &00
2699 A5 01    LDA &01
269B 65 7C    ADC &7C
269D 85 01    STA &01
269F 60       RTS
26A0 01 2E    ORA (&2E,X)
26A2 05 1A    ORA &1A
26A4 9C 83 2E STZ &2E83
26A7 05 1A    ORA &1A
26A9 9C 01 2E STZ &2E01
26AC 05 1A    ORA &1A
26AE 9C 05 2F STZ &2F05
26B1 04 1A    TSB &1A
26B3 82       ???
26B4 6D 2F 04 ADC &042F
26B7 1A       INC A
26B8 82       ???
26B9 C3       ???
26BA 2B       ???
26BB 06 1A    ASL &1A
26BD B6 5F    LDX 5F,Y
26BF 2C 08 06 BIT &0608
26C2 36 D5    ROL D5,X
26C4 2F       ???
26C5 08       PHP
26C6 10 90    BPL &2658
26C8 55 30    EOR 30,X
26CA 05 1A    ORA &1A
26CC 9C D7 30 STZ &30D7
26CF 08       PHP
26D0 0E 7E EF ASL &EF7E
26D3 29 05    AND #&05
26D5 1A       INC A
26D6 9C 71 2A STZ &2A71
26D9 05 1A    ORA &1A
26DB 9C 6D 29 STZ &296D
26DE 05 1A    ORA &1A
26E0 9C F3 2A STZ &2AF3
26E3 04 1A    TSB &1A
26E5 82       ???
26E6 5B       ???
26E7 2B       ???
26E8 04 1A    TSB &1A
26EA 82       ???
26EB C3       ???
26EC 2B       ???
26ED 06 1A    ASL &1A
26EF B6 5F    LDX 5F,Y
26F1 2C 08 06 BIT &0608
26F4 36 8F    ROL 8F,X
26F6 2C 08 10 BIT &1008
26F9 90 0F    BCC &270A
26FB 2D 05 1A AND &1A05
26FE 9C 91 2D STZ &2D91
2701 08       PHP
2702 0E       ???
2703 7E       ???
2704 A9 39    LDA #&39          ; Clear screen with value %1000'0000 - &80
2706 85 7C    STA &7C
2708 A9 80    LDA #&80
270A 85 7B    STA &7B
270C A2 47    LDX #&47
270E A0 80    LDY #&80
2710 91 7B    STA (&7B),Y       ; Write to screen
2712 C8       INY
2713 D0 FB    BNE &2710
2715 E6 7C    INC &7C
2717 CA       DEX
2718 D0 F6    BNE &2710
271A 60       RTS
271B 78       SEI
271C A2 0F    LDX #&0F
271E BD E9 17 LDA &17E9,X
2721 29 F0    AND #&F0
2723 09 07    ORA #&07
2725 8D 21 FE STA &FE21
2728 CA       DEX
2729 10 F3    BPL &271E
272B 58       CLI
272C 60       RTS
272D 78       SEI
272E A5 13    LDA &13
2730 0A       ASL A
2731 AA       TAX
2732 BD 3F 17 LDA &173F,X
2735 85 7B    STA &7B
2737 BD 40 17 LDA &1740,X
273A 85 7C    STA &7C
273C 6C 7B 00 JMP (&007B)
273F 5C 17 57 ??? &5717
2742 17       ???
2743 95 17    STA 17,X
2745 57       ???
2746 17       ???
2747 5F       ???
2748 17       ???
2749 72 17    ADC (17)
274B 81 17    STA (&17,X)
274D 5C 17 81 ??? &8117
2750 17       ???
2751 A6 17    LDX &17
2753 AC 17 5F LDY &5F17
2756 17       ???
2757 A2 96    LDX #&96
2759 8E F2 17 STX &17F2
275C 4C DC 17 JMP &17DC
275F A9 FF    LDA #&FF
2761 85 11    STA &11
2763 20 C0 17 JSR &17C0
2766 A9 D6    LDA #&D6
2768 8D F6 17 STA &17F6
276B A9 E6    LDA #&E6
276D 8D F7 17 STA &17F7
2770 D0 6A    BNE &27DC
2772 A9 D3    LDA #&D3
2774 8D F6 17 STA &17F6
2777 A5 11    LDA &11
2779 D0 36    BNE &27B1
277B 20 C0 17 JSR &17C0
277E 4C 95 17 JMP &1795
2781 A9 96    LDA #&96
2783 8D F2 17 STA &17F2
2786 A9 A7    LDA #&A7
2788 8D F3 17 STA &17F3
278B A9 B7    LDA #&B7
278D 8D F4 17 STA &17F4
2790 A9 C7    LDA #&C7
2792 8D F5 17 STA &17F5
2795 A9 D3    LDA #&D3
2797 8D F6 17 STA &17F6
279A A9 E3    LDA #&E3
279C 8D F7 17 STA &17F7
279F A9 F3    LDA #&F3
27A1 8D F8 17 STA &17F8
27A4 D0 36    BNE &27DC
27A6 20 C0 17 JSR &17C0
27A9 4C 95 17 JMP &1795
27AC A9 D3    LDA #&D3
27AE 8D F6 17 STA &17F6
27B1 20 C0 17 JSR &17C0
27B4 A9 E6    LDA #&E6
27B6 8D F7 17 STA &17F7
27B9 A9 F0    LDA #&F0
27BB 8D F8 17 STA &17F8
27BE D0 1C    BNE &27DC
27C0 A2 01    LDX #&01
27C2 86 25    STX &25
27C4 CA       DEX
27C5 86 26    STX &26
27C7 A2 96    LDX #&96
27C9 8E F2 17 STX &17F2
27CC A2 AD    LDX #&AD
27CE 8E F3 17 STX &17F3
27D1 A2 BC    LDX #&BC
27D3 8E F4 17 STX &17F4
27D6 A2 CB    LDX #&CB
27D8 8E F5 17 STX &17F5
27DB 60       RTS
27DC A2 0F    LDX #&0F
27DE BD E9 17 LDA &17E9,X
27E1 8D 21 FE STA &FE21
27E4 CA       DEX
27E5 10 F7    BPL &27DE
27E7 58       CLI
27E8 60       RTS
27E9 07       ???
27EA 16 25    ASL 25,X
27EC 34 43    BIT 43,X
27EE 52 61    EOR (61)
27F0 70 8F    BVS &2781
27F2 96 AD    STX AD,Y
27F4 BC CB D3 LDY &D3CB,X
27F7 E3       ???
27F8 F3       ???
27F9 78       SEI               ; Handle palette changes (also called from demo mode)
27FA C6 25    DEC &25
27FC D0 43    BNE &2841
27FE A9 03    LDA #&03
2800 85 25    STA &25
2802 A5 13    LDA &13           ; Is it screen 5?
2804 C9 05    CMP #&05
2806 F0 10    BEQ &2818
2808 C9 09    CMP #&09          ; or 9?
280A F0 0C    BEQ &2818
280C C9 0A    CMP #&0A          ; or 10?
280E F0 08    BEQ &2818
2810 C9 0B    CMP #&0B          ; or 11?
2812 F0 04    BEQ &2818
2814 C9 04    CMP #&04          ; or 4?
2816 D0 2B    BNE &2843         ; None of these, branch to ...
2818 A5 26    LDA &26
281A 49 FF    EOR #&FF
281C 85 26    STA &26           ; Flip &26
281E D0 0D    BNE &282D
2820 A9 90    LDA #&90
2822 8D 21 FE STA &FE21
2825 A9 A0    LDA #&A0
2827 A2 B7    LDX #&B7
2829 A0 C7    LDY #&C7
282B D0 0B    BNE &2838
282D A9 97    LDA #&97
282F 8D 21 FE STA &FE21
2832 A9 A7    LDA #&A7
2834 A2 B0    LDX #&B0
2836 A0 C0    LDY #&C0
2838 8D 21 FE STA &FE21
283B 8E 21 FE STX &FE21
283E 8C 21 FE STY &FE21
2841 58       CLI
2842 60       RTS
2843 C9 08    CMP #&08          ; Second part of the screen routine, check for screen 8
2845 F0 04    BEQ &284B
2847 C9 06    CMP #&06          ; .. or screen 6? (Is this the smoke belches?)
2849 D0 1A    BNE &2865
284B E6 26    INC &26
284D A6 26    LDX &26
284F CA       DEX
2850 F0 09    BEQ &285B
2852 E0 06    CPX #&06
2854 90 09    BCC &285F
2856 A2 01    LDX #&01
2858 86 26    STX &26
285A CA       DEX
285B A9 20    LDA #&20
285D 85 25    STA &25
285F BD 67 18 LDA &1867,X
2862 8D 21 FE STA &FE21
2865 58       CLI               ; Clear interrupt flag
2866 60       RTS               ; And return
2867 A7       ???
2868 A0 B0    LDY #&B0
286A C0 C7    CPY #&C7
286C B7       ???
286D A5 13    LDA &13           ; Get current screen
286F 0A       ASL A             ; *2
2870 85 7D    STA &7D           ; Store at &7D
2872 0A       ASL A             ; *4
2873 65 7D    ADC &7D           ; *6
2875 AA       TAX
2876 BD B2 20 LDA &20B2,X       ; Load from Lookup table at &20B2
2879 85 7D    STA &7D
287B BD B3 20 LDA &20B3,X
287E 85 7E    STA &7E           ; Store at &7D/&7E
2880 A0 00    LDY #&00
2882 60       RTS               ; And return
2883 20 6D 18 JSR &186D         ; Call the routine above, gets "something" to &7D/&7E
2886 A9 80    LDA #&80
2888 85 1C    STA &1C           ; &1C = &80
288A B1 7D    LDA (&7D),Y
288C C9 FF    CMP #&FF
288E F0 28    BEQ &28B8
2890 A6 33    LDX &33
2892 D0 25    BNE &28B9
2894 C8       INY
2895 48       PHA
2896 B1 7D    LDA (&7D),Y
2898 C8       INY
2899 85 0D    STA &0D
289B 85 04    STA &04
289D B1 7D    LDA (&7D),Y
289F C8       INY
28A0 85 0E    STA &0E
28A2 68       PLA
28A3 30 0F    BMI &28B4
28A5 98       TYA
28A6 48       PHA
28A7 20 2E 16 JSR &162E
28AA A9 11    LDA #&11          ; Draw lantern
28AC 20 AE 1F JSR &1FAE
28AF 20 16 1D JSR &1D16
28B2 68       PLA
28B3 A8       TAY
28B4 E6 1C    INC &1C
28B6 D0 D2    BNE &288A
28B8 60       RTS
28B9 A9 00    LDA #&00
28BB 91 7D    STA (&7D),Y
28BD C8       INY
28BE C8       INY
28BF C8       INY
28C0 D0 F2    BNE &28B4
28C2 F8       SED
28C3 18       CLC
28C4 A5 15    LDA &15
28C6 69 25    ADC #&25
28C8 85 15    STA &15
28CA A5 16    LDA &16
28CC 69 01    ADC #&01
28CE 85 16    STA &16
28D0 AA       TAX
28D1 A5 17    LDA &17
28D3 69 00    ADC #&00
28D5 85 17    STA &17
28D7 A8       TAY
28D8 D8       CLD
28D9 C5 1A    CMP &1A
28DB 90 0E    BCC &28EB
28DD D0 0F    BNE &28EE
28DF E4 19    CPX &19
28E1 90 08    BCC &28EB
28E3 D0 09    BNE &28EE
28E5 A5 15    LDA &15
28E7 C5 18    CMP &18
28E9 B0 03    BCS &28EE
28EB 4C CE 1A JMP &1ACE
28EE A5 15    LDA &15
28F0 85 18    STA &18
28F2 86 19    STX &19
28F4 84 1A    STY &1A
28F6 4C CE 1A JMP &1ACE
28F9 38       SEC
28FA E9 80    SBC #&80
28FC 85 7B    STA &7B
28FE 0A       ASL A
28FF 18       CLC
2900 65 7B    ADC &7B
2902 85 7F    STA &7F
2904 20 6D 18 JSR &186D
2907 A4 7F    LDY &7F
2909 C8       INY
290A B1 7D    LDA (&7D),Y
290C 18       CLC
290D 69 03    ADC #&03
290F C5 80    CMP &80
2911 90 37    BCC &294A
2913 E9 07    SBC #&07
2915 B0 02    BCS &2919
2917 A9 00    LDA #&00
2919 C5 80    CMP &80
291B B0 2D    BCS &294A
291D 88       DEY
291E B1 7D    LDA (&7D),Y
2920 30 28    BMI &294A
2922 09 80    ORA #&80
2924 91 7D    STA (&7D),Y
2926 C8       INY
2927 B1 7D    LDA (&7D),Y
2929 C8       INY
292A 85 0D    STA &0D
292C B1 7D    LDA (&7D),Y
292E 85 0E    STA &0E
2930 20 21 1B JSR &1B21
2933 20 2E 16 JSR &162E
2936 A5 0D    LDA &0D
2938 85 04    STA &04
293A A9 12    LDA #&12
293C 20 AE 1F JSR &1FAE         ; Draw "collected" lantern
293F 20 5A 1B JSR &1B5A
2942 20 C2 18 JSR &18C2
2945 E6 30    INC &30
2947 4C 4B 19 JMP &194B
294A 60       RTS
294B 78       SEI
294C A5 13    LDA &13           ; Load current screen number
294E 0A       ASL A             ; *2
294F AA       TAX
2950 BD 60 19 LDA &1960,X
2953 85 7B    STA &7B
2955 BD 61 19 LDA &1961,X
2958 85 7C    STA &7C           ; Read 2 bytes from the lookup table at &1960
295A 20 6D 18 JSR &186D
295D 6C 7B 00 JMP (&007B)
2960 86 19    STX &19
2962 78       SEI
2963 19 88 19 ORA &1988,Y
2966 96 19    STX 19,Y
2968 A4 19    LDY &19
296A D9 19 1E CMP &1E19,Y
296D 1A       INC A
296E 86 19    STX &19
2970 34 1A    BIT 1A,X
2972 5C 1A 9C ??? &9C1A
2975 1A       INC A
2976 C2       ???
2977 19 A5 30 ORA &30A5,Y
297A C9 14    CMP #&14
297C 90 08    BCC &2986
297E A9 97    LDA #&97
2980 8D F2 17 STA &17F2
2983 8D 21 FE STA &FE21
2986 58       CLI
2987 60       RTS
2988 A5 11    LDA &11
298A F0 FA    BEQ &2986
298C A9 D7    LDA #&D7
298E 8D F6 17 STA &17F6
2991 8D 21 FE STA &FE21
2994 58       CLI
2995 60       RTS
2996 B1 7D    LDA (&7D),Y
2998 10 08    BPL &29A2
299A A9 97    LDA #&97
299C 8D F2 17 STA &17F2
299F 8D 21 FE STA &FE21
29A2 58       CLI
29A3 60       RTS
29A4 A0 03    LDY #&03
29A6 B1 7D    LDA (&7D),Y
29A8 10 08    BPL &29B2
29AA A9 E7    LDA #&E7
29AC 8D F7 17 STA &17F7
29AF 8D 21 FE STA &FE21
29B2 A0 00    LDY #&00
29B4 B1 7D    LDA (&7D),Y
29B6 10 08    BPL &29C0
29B8 A9 D7    LDA #&D7
29BA 8D F6 17 STA &17F6
29BD 8D 21 FE STA &FE21
29C0 58       CLI
29C1 60       RTS
29C2 A0 03    LDY #&03
29C4 B1 7D    LDA (&7D),Y
29C6 10 EA    BPL &29B2
29C8 58       CLI
29C9 A2 1D    LDX #&1D
29CB A0 28    LDY #&28
29CD 20 86 03 JSR &0386
29D0 20 CB 15 JSR &15CB
29D3 20 7E 1F JSR &1F7E
29D6 4C 55 09 JMP &0955
29D9 A5 11    LDA &11
29DB F0 17    BEQ &29F4
29DD A0 09    LDY #&09
29DF B1 7D    LDA (&7D),Y
29E1 10 08    BPL &29EB
29E3 A2 D7    LDX #&D7
29E5 8E F6 17 STX &17F6
29E8 8E 21 FE STX &FE21
29EB A0 0C    LDY #&0C
29ED B1 7D    LDA (&7D),Y
29EF 10 2B    BPL &2A1C
29F1 4C BC 1A JMP &1ABC
29F4 A0 18    LDY #&18
29F6 B1 7D    LDA (&7D),Y
29F8 10 22    BPL &2A1C
29FA A0 1B    LDY #&1B
29FC B1 7D    LDA (&7D),Y
29FE 10 1C    BPL &2A1C
2A00 A2 E7    LDX #&E7
2A02 8E F7 17 STX &17F7
2A05 8E 21 FE STX &FE21
2A08 A0 12    LDY #&12
2A0A B1 7D    LDA (&7D),Y
2A0C 10 0E    BPL &2A1C
2A0E A0 15    LDY #&15
2A10 B1 7D    LDA (&7D),Y
2A12 10 08    BPL &2A1C
2A14 A2 F7    LDX #&F7
2A16 8E F8 17 STX &17F8
2A19 8E 21 FE STX &FE21
2A1C 58       CLI
2A1D 60       RTS
2A1E A0 0F    LDY #&0F
2A20 B1 7D    LDA (&7D),Y
2A22 10 0D    BPL &2A31
2A24 88       DEY
2A25 88       DEY
2A26 88       DEY
2A27 10 F7    BPL &2A20
2A29 A9 D7    LDA #&D7
2A2B 8D F6 17 STA &17F6
2A2E 8D 21 FE STA &FE21
2A31 58       CLI
2A32 60       RTS
2A33 60       RTS
2A34 A0 09    LDY #&09
2A36 B1 7D    LDA (&7D),Y
2A38 10 F7    BPL &2A31
2A3A 88       DEY
2A3B 88       DEY
2A3C 88       DEY
2A3D 10 F7    BPL &2A36
2A3F A9 D7    LDA #&D7
2A41 8D F6 17 STA &17F6
2A44 8D 21 FE STA &FE21
2A47 A0 1B    LDY #&1B
2A49 B1 7D    LDA (&7D),Y
2A4B 10 0D    BPL &2A5A
2A4D 88       DEY
2A4E 88       DEY
2A4F 88       DEY
2A50 10 F7    BPL &2A49
2A52 A9 E7    LDA #&E7
2A54 8D F7 17 STA &17F7
2A57 8D 21 FE STA &FE21
2A5A 58       CLI
2A5B 60       RTS
2A5C B1 7D    LDA (&7D),Y
2A5E 10 3A    BPL &2A9A
2A60 A9 D7    LDA #&D7
2A62 8D F6 17 STA &17F6
2A65 8D 21 FE STA &FE21
2A68 C6 13    DEC &13
2A6A 20 6D 18 JSR &186D
2A6D E6 13    INC &13
2A6F A0 1E    LDY #&1E
2A71 B1 7D    LDA (&7D),Y
2A73 10 25    BPL &2A9A
2A75 A0 21    LDY #&21
2A77 B1 7D    LDA (&7D),Y
2A79 10 1F    BPL &2A9A
2A7B A9 E7    LDA #&E7
2A7D 8D F7 17 STA &17F7
2A80 8D 21 FE STA &FE21
2A83 20 6D 18 JSR &186D
2A86 A0 03    LDY #&03
2A88 B1 7D    LDA (&7D),Y
2A8A 10 0E    BPL &2A9A
2A8C A0 06    LDY #&06
2A8E B1 7D    LDA (&7D),Y
2A90 10 08    BPL &2A9A
2A92 A9 F7    LDA #&F7
2A94 8D F8 17 STA &17F8
2A97 8D 21 FE STA &FE21
2A9A 58       CLI
2A9B 60       RTS
2A9C B1 7D    LDA (&7D),Y
2A9E 10 2C    BPL &2ACC
2AA0 A0 03    LDY #&03
2AA2 B1 7D    LDA (&7D),Y
2AA4 10 26    BPL &2ACC
2AA6 85 29    STA &29
2AA8 A0 06    LDY #&06
2AAA B1 7D    LDA (&7D),Y
2AAC 10 1E    BPL &2ACC
2AAE A9 D7    LDA #&D7
2AB0 8D F6 17 STA &17F6
2AB3 8D 21 FE STA &FE21
2AB6 A0 09    LDY #&09
2AB8 B1 7D    LDA (&7D),Y
2ABA 10 10    BPL &2ACC
2ABC A9 E7    LDA #&E7
2ABE 8D F7 17 STA &17F7
2AC1 8D 21 FE STA &FE21
2AC4 A9 F7    LDA #&F7
2AC6 8D F8 17 STA &17F8
2AC9 8D 21 FE STA &FE21
2ACC 58       CLI
2ACD 60       RTS
2ACE A9 C8    LDA #&C8
2AD0 85 00    STA &00
2AD2 A9 37    LDA #&37
2AD4 85 01    STA &01
2AD6 A5 17    LDA &17
2AD8 20 06 1B JSR &1B06
2ADB A5 16    LDA &16
2ADD 20 06 1B JSR &1B06
2AE0 A5 15    LDA &15
2AE2 20 06 1B JSR &1B06
2AE5 A9 C0    LDA #&C0
2AE7 85 00    STA &00
2AE9 A9 38    LDA #&38
2AEB 85 01    STA &01
2AED A5 1A    LDA &1A
2AEF 20 06 1B JSR &1B06
2AF2 A5 19    LDA &19
2AF4 20 06 1B JSR &1B06
2AF7 A5 18    LDA &18
2AF9 4C 06 1B JMP &1B06
2AFC A9 E0    LDA #&E0
2AFE 85 00    STA &00
2B00 A9 39    LDA #&39
2B02 85 01    STA &01
2B04 A5 1B    LDA &1B
2B06 48       PHA
2B07 A9 00    LDA #&00
2B09 85 04    STA &04
2B0B 68       PLA
2B0C 48       PHA
2B0D 4A       LSR A
2B0E 4A       LSR A
2B0F 4A       LSR A
2B10 4A       LSR A
2B11 18       CLC
2B12 69 14    ADC #&14
2B14 20 AE 1F JSR &1FAE         ; Draw tile?
2B17 68       PLA
2B18 29 0F    AND #&0F
2B1A 18       CLC
2B1B 69 14    ADC #&14
2B1D 20 AE 1F JSR &1FAE         ; Draw tile?
2B20 60       RTS
2B21 A5 97    LDA &97
2B23 85 02    STA &02
2B25 A5 98    LDA &98
2B27 85 03    STA &03
2B29 A5 82    LDA &82
2B2B 85 00    STA &00
2B2D A5 83    LDA &83
2B2F 85 01    STA &01
2B31 A5 91    LDA &91
2B33 85 04    STA &04
2B35 A5 84    LDA &84
2B37 85 08    STA &08
2B39 A5 85    LDA &85
2B3B 85 0C    STA &0C
2B3D 4C C4 12 JMP &12C4
2B40 A5 80    LDA &80
2B42 85 0D    STA &0D
2B44 A5 81    LDA &81
2B46 85 0E    STA &0E
2B48 A5 80    LDA &80
2B4A 85 04    STA &04
2B4C 85 91    STA &91
2B4E 20 2E 16 JSR &162E
2B51 A5 00    LDA &00
2B53 85 82    STA &82
2B55 A5 01    LDA &01
2B57 85 83    STA &83
2B59 60       RTS
2B5A 20 40 1B JSR &1B40
2B5D A5 8B    LDA &8B
2B5F D0 27    BNE &2B88
2B61 A5 89    LDA &89
2B63 D0 04    BNE &2B69
2B65 A5 88    LDA &88
2B67 30 25    BMI &2B8E
2B69 A5 86    LDA &86
2B6B C9 02    CMP #&02
2B6D B0 1F    BCS &2B8E
2B6F 29 01    AND #&01
2B71 85 20    STA &20
2B73 A5 87    LDA &87
2B75 10 0B    BPL &2B82
2B77 18       CLC
2B78 69 82    ADC #&82
2B7A C9 0B    CMP #&0B
2B7C 90 1A    BCC &2B98
2B7E A9 02    LDA #&02
2B80 D0 16    BNE &2B98
2B82 29 02    AND #&02
2B84 4A       LSR A
2B85 EA       NOP
2B86 10 10    BPL &2B98
2B88 A9 04    LDA #&04
2B8A 85 20    STA &20
2B8C D0 0A    BNE &2B98
2B8E A5 87    LDA &87
2B90 29 04    AND #&04
2B92 4A       LSR A
2B93 4A       LSR A
2B94 85 20    STA &20
2B96 A9 03    LDA #&03
2B98 85 7B    STA &7B
2B9A 0A       ASL A
2B9B 0A       ASL A
2B9C 18       CLC
2B9D 65 7B    ADC &7B
2B9F A8       TAY
2BA0 B1 94    LDA (&94),Y
2BA2 C8       INY
2BA3 85 02    STA &02
2BA5 B1 94    LDA (&94),Y
2BA7 C8       INY
2BA8 85 03    STA &03
2BAA B1 94    LDA (&94),Y
2BAC C8       INY
2BAD 85 0B    STA &0B
2BAF 85 08    STA &08
2BB1 85 84    STA &84
2BB3 B1 94    LDA (&94),Y
2BB5 C8       INY
2BB6 85 0C    STA &0C
2BB8 85 85    STA &85
2BBA B1 94    LDA (&94),Y
2BBC 85 1F    STA &1F
2BBE A5 20    LDA &20
2BC0 F0 03    BEQ &2BC5
2BC2 4C 16 12 JMP &1216
2BC5 4C 6B 11 JMP &116B         ; Draw tile?
2BC8 08       PHP               ; ---- User vector routine
2BC9 48       PHA
2BCA C9 04    CMP #&04
2BCC D0 08    BNE &2BD6         ; Drop out if A isn't 4?
2BCE E6 28    INC &28           ; Increment &28
2BD0 A5 34    LDA &34           ; &34 = Footstep sound delay
2BD2 F0 02    BEQ &2BD6         ; Decrement &34 if not already 0
2BD4 C6 34    DEC &34
2BD6 68       PLA
2BD7 28       PLP
2BD8 60       RTS               ; --- End user vector routine
2BD9 00       BRK
2BDA 00       BRK
2BDB 00       BRK
2BDC 00       BRK
2BDD 00       BRK
2BDE 00       BRK
2BDF 00       BRK
2BE0 00       BRK
2BE1 00       BRK
2BE2 00       BRK
2BE3 00       BRK
2BE4 00       BRK
2BE5 A5 31    LDA &31
2BE7 D0 17    BNE &2C00
2BE9 A6 13    LDX &13
2BEB F0 13    BEQ &2C00
2BED BD D9 1B LDA &1BD9,X
2BF0 D0 0E    BNE &2C00
2BF2 A9 FF    LDA #&FF
2BF4 9D D9 1B STA &1BD9,X
2BF7 F8       SED
2BF8 18       CLC
2BF9 A5 16    LDA &16
2BFB 69 20    ADC #&20
2BFD 20 CE 18 JSR &18CE
2C00 20 05 11 JSR &1105
2C03 A9 00    LDA #&00
2C05 85 88    STA &88
2C07 20 0C 11 JSR &110C
2C0A 20 0F 1F JSR &1F0F
2C0D A9 80    LDA #&80
2C0F 85 7B    STA &7B
2C11 A9 03    LDA #&03
2C13 85 7C    STA &7C
2C15 A9 03    LDA #&03
2C17 85 7D    STA &7D
2C19 A0 80    LDY #&80
2C1B A9 00    LDA #&00
2C1D 91 7B    STA (&7B),Y
2C1F C8       INY
2C20 D0 FB    BNE &2C1D
2C22 E6 7C    INC &7C
2C24 C6 7D    DEC &7D
2C26 D0 F5    BNE &2C1D
2C28 A9 00    LDA #&00
2C2A 85 20    STA &20
2C2C 20 1B 17 JSR &171B
2C2F 20 04 17 JSR &1704         ; Clear screen
2C32 A5 13    LDA &13           ; Load current screen number (&13)
2C34 C9 05    CMP #&05          ; Is it 5?
2C36 D0 0F    BNE &2C47         ; If not ...
2C38 A5 11    LDA &11
2C3A F0 0B    BEQ &2C47         ; (some sort of flag)
2C3C A9 0B    LDA #&0B
2C3E 85 0F    STA &0F
2C40 A9 1D    LDA #&1D
2C42 85 10    STA &10
2C44 20 67 1C JSR &1C67
2C47 A5 13    LDA &13           ; .. skip to here, load screen number again
2C49 0A       ASL A             ; A = current screen * 2
2C4A 85 7B    STA &7B           ; Store in &7B
2C4C 0A       ASL A             ; A = current screen * 4
2C4D 18       CLC               ; Add &7B
2C4E 65 7B    ADC &7B           ; So A = current screen * 6
2C50 AA       TAX               ; Transfer to index register
2C51 BD B0 20 LDA &20B0,X       ; And load first byte
2C54 85 0F    STA &0F
2C56 BD B1 20 LDA &20B1,X
2C59 85 10    STA &10           ; Load second byte
2C5B 20 67 1C JSR &1C67
2C5E 20 83 18 JSR &1883
2C61 20 2D 17 JSR &172D
2C64 4C 4B 19 JMP &194B         ; .. and jump somewhere
2C67 A0 00    LDY #&00
2C69 B1 0F    LDA (&0F),Y
2C6B C8       INY
2C6C C9 F3    CMP #&F3
2C6E D0 01    BNE &2C71
2C70 60       RTS
2C71 85 1C    STA &1C
2C73 B1 0F    LDA (&0F),Y
2C75 C8       INY
2C76 85 0D    STA &0D
2C78 B1 0F    LDA (&0F),Y
2C7A C8       INY
2C7B 85 0E    STA &0E
2C7D B1 0F    LDA (&0F),Y
2C7F C8       INY
2C80 85 1E    STA &1E
2C82 B1 0F    LDA (&0F),Y
2C84 85 1D    STA &1D
2C86 20 2E 16 JSR &162E
2C89 A5 13    LDA &13
2C8B C9 05    CMP #&05          ; Check for screen 5 again
2C8D D0 16    BNE &2CA5
2C8F A5 11    LDA &11
2C91 F0 12    BEQ &2CA5
2C93 A5 1C    LDA &1C           ; What is in &1C?
2C95 C9 2B    CMP #&2B
2C97 F0 28    BEQ &2CC1
2C99 C9 2A    CMP #&2A
2C9B F0 24    BEQ &2CC1
2C9D C9 06    CMP #&06
2C9F F0 20    BEQ &2CC1
2CA1 C9 2D    CMP #&2D
2CA3 F0 1C    BEQ &2CC1
2CA5 A5 29    LDA &29
2CA7 F0 06    BEQ &2CAF
2CA9 A5 1C    LDA &1C
2CAB C9 2C    CMP #&2C
2CAD F0 12    BEQ &2CC1
2CAF A5 0D    LDA &0D
2CB1 85 04    STA &04
2CB3 A5 1C    LDA &1C
2CB5 C9 F0    CMP #&F0
2CB7 F0 05    BEQ &2CBE
2CB9 A5 1C    LDA &1C
2CBB 20 AE 1F JSR &1FAE         ; Draw tile
2CBE 20 16 1D JSR &1D16
2CC1 A5 1E    LDA &1E
2CC3 C9 F3    CMP #&F3
2CC5 F0 43    BEQ &2D0A
2CC7 C6 1D    DEC &1D
2CC9 F0 1F    BEQ &2CEA
2CCB C9 F1    CMP #&F1
2CCD F0 14    BEQ &2CE3
2CCF C9 F2    CMP #&F2
2CD1 F0 03    BEQ &2CD6
2CD3 4C FA 1C JMP &1CFA
2CD6 18       CLC
2CD7 A5 0E    LDA &0E
2CD9 65 0C    ADC &0C
2CDB 85 0E    STA &0E
2CDD 20 2E 16 JSR &162E
2CE0 4C 89 1C JMP &1C89
2CE3 A5 04    LDA &04
2CE5 85 0D    STA &0D
2CE7 4C 89 1C JMP &1C89
2CEA 18       CLC
2CEB A5 0F    LDA &0F
2CED 69 05    ADC #&05
2CEF 85 0F    STA &0F
2CF1 A5 10    LDA &10
2CF3 69 00    ADC #&00
2CF5 85 10    STA &10
2CF7 4C 67 1C JMP &1C67
2CFA 18       CLC
2CFB A5 0F    LDA &0F
2CFD 69 03    ADC #&03
2CFF 85 0F    STA &0F
2D01 A5 10    LDA &10
2D03 69 00    ADC #&00
2D05 85 10    STA &10
2D07 4C 67 1C JMP &1C67
2D0A 60       RTS
2D0B 03       ???
2D0C 34 20    BIT 20,X
2D0E F2 0B    SBC (0B)
2D10 2E 41 20 ROL &2041
2D13 F1 02    SBC (&02),Y
2D15 F3       ???
2D16 A5 0D    LDA &0D
2D18 48       PHA
2D19 A5 0E    LDA &0E
2D1B 48       PHA
2D1C A5 1C    LDA &1C
2D1E 48       PHA
2D1F C9 F0    CMP #&F0
2D21 B0 08    BCS &2D2B
2D23 C9 80    CMP #&80
2D25 B0 04    BCS &2D2B
2D27 C9 34    CMP #&34
2D29 B0 28    BCS &2D53
2D2B 20 FD 15 JSR &15FD
2D2E A5 0B    LDA &0B
2D30 4A       LSR A
2D31 4A       LSR A
2D32 D0 02    BNE &2D36
2D34 A9 01    LDA #&01
2D36 85 0B    STA &0B
2D38 A5 0C    LDA &0C
2D3A 4A       LSR A
2D3B 4A       LSR A
2D3C 4A       LSR A
2D3D D0 02    BNE &2D41
2D3F A9 01    LDA #&01
2D41 85 09    STA &09
2D43 A0 00    LDY #&00
2D45 98       TYA
2D46 48       PHA
2D47 20 5D 1D JSR &1D5D
2D4A 68       PLA
2D4B 18       CLC
2D4C 69 14    ADC #&14
2D4E A8       TAY
2D4F C6 09    DEC &09
2D51 D0 F2    BNE &2D45
2D53 68       PLA
2D54 85 1C    STA &1C
2D56 68       PLA
2D57 85 0E    STA &0E
2D59 68       PLA
2D5A 85 0D    STA &0D
2D5C 60       RTS
2D5D A5 1C    LDA &1C
2D5F A6 0B    LDX &0B
2D61 91 7B    STA (&7B),Y
2D63 C8       INY
2D64 CA       DEX
2D65 D0 FA    BNE &2D61
2D67 60       RTS
2D68 A9 00    LDA #&00
2D6A 85 89    STA &89
2D6C 85 96    STA &96
2D6E A5 13    LDA &13
2D70 C9 0A    CMP #&0A
2D72 D0 0C    BNE &2D80
2D74 A5 13    LDA &13
2D76 A6 81    LDX &81
2D78 E0 BE    CPX #&BE
2D7A 90 04    BCC &2D80
2D7C A9 09    LDA #&09
2D7E 85 13    STA &13
2D80 0A       ASL A
2D81 0A       ASL A
2D82 AA       TAX
2D83 BD 9A 1D LDA &1D9A,X
2D86 85 80    STA &80
2D88 BD 9B 1D LDA &1D9B,X
2D8B 85 81    STA &81
2D8D BD 9C 1D LDA &1D9C,X
2D90 85 86    STA &86
2D92 BD 9D 1D LDA &1D9D,X
2D95 85 87    STA &87
2D97 4C 0C 11 JMP &110C
2D9A 08       PHP
2D9B 46 01    LSR &01           ; Level data?
2D9D 80 00    BRA &2D9F
2D9F 46 01    LSR &01
2DA1 80 00    BRA &2DA3
2DA3 46 01    LSR &01
2DA5 80 00    BRA &2DA7
2DA7 D6 01    DEC 01,X
2DA9 80 4B    BRA &2DF6
2DAB CE 00 80 DEC &8000
2DAE 24 22    BIT &22
2DB0 03       ???
2DB1 82       ???
2DB2 47       ???
2DB3 C6 00    DEC &00
2DB5 80 04    BRA &2DBB
2DB7 46 01    LSR &01
2DB9 80 0A    BRA &2DC5
2DBB 22       ???
2DBC 03       ???
2DBD 82       ???
2DBE 00       BRK
2DBF 46 01    LSR &01
2DC1 80 00    BRA &2DC3
2DC3 46 00    LSR &00
2DC5 80 48    BRA &2E0F
2DC7 66 00    ROR &00
2DC9 80 A5    BRA &2D70
2DCB 13       ???
2DCC 0A       ASL A
2DCD AA       TAX
2DCE BD 14 27 LDA &2714,X
2DD1 85 23    STA &23
2DD3 BD 15 27 LDA &2715,X
2DD6 85 24    STA &24
2DD8 A9 00    LDA #&00
2DDA A8       TAY
2DDB 60       RTS
2DDC 68       PLA
2DDD 60       RTS
2DDE 20 05 11 JSR &1105         ; What does this do
2DE1 20 CA 1D JSR &1DCA
2DE4 48       PHA
2DE5 85 7F    STA &7F
2DE7 0A       ASL A
2DE8 0A       ASL A
2DE9 18       CLC
2DEA 65 7F    ADC &7F
2DEC AA       TAX
2DED A5 12    LDA &12
2DEF D0 EB    BNE &2DDC
2DF1 B1 23    LDA (&23),Y
2DF3 C8       INY
2DF4 C9 FF    CMP #&FF
2DF6 F0 E4    BEQ &2DDC
2DF8 85 7F    STA &7F
2DFA B5 4D    LDA 4D,X
2DFC 30 04    BMI &2E02
2DFE D6 4D    DEC 4D,X
2E00 10 0A    BPL &2E0C
2E02 20 B2 1E JSR &1EB2
2E05 18       CLC
2E06 98       TYA
2E07 69 05    ADC #&05
2E09 A8       TAY
2E0A D0 52    BNE &2E5E
2E0C C8       INY
2E0D B1 23    LDA (&23),Y
2E0F C8       INY
2E10 85 0D    STA &0D
2E12 B1 23    LDA (&23),Y
2E14 C8       INY
2E15 85 0E    STA &0E
2E17 B1 23    LDA (&23),Y
2E19 08       PHP
2E1A B5 4E    LDA 4E,X
2E1C 28       PLP
2E1D 10 05    BPL &2E24
2E1F 18       CLC
2E20 69 02    ADC #&02
2E22 65 7F    ADC &7F
2E24 18       CLC
2E25 65 0D    ADC &0D
2E27 85 0D    STA &0D
2E29 20 8E 1E JSR &1E8E
2E2C 18       CLC
2E2D A5 0D    LDA &0D
2E2F 71 23    ADC (&23),Y
2E31 85 0D    STA &0D
2E33 18       CLC
2E34 B5 4E    LDA 4E,X
2E36 71 23    ADC (&23),Y
2E38 C8       INY
2E39 95 4E    STA 4E,X
2E3B 86 7D    STX &7D
2E3D 84 7E    STY &7E
2E3F 20 65 1E JSR &1E65
2E42 20 2E 16 JSR &162E
2E45 A6 7D    LDX &7D
2E47 A4 7E    LDY &7E
2E49 A5 00    LDA &00
2E4B 95 4F    STA 4F,X
2E4D A5 01    LDA &01
2E4F 95 50    STA 50,X
2E51 B1 23    LDA (&23),Y
2E53 C8       INY
2E54 84 7E    STY &7E
2E56 20 AE 1F JSR &1FAE
2E59 20 8E 1E JSR &1E8E
2E5C A4 7E    LDY &7E
2E5E 68       PLA
2E5F 18       CLC
2E60 69 01    ADC #&01
2E62 4C E4 1D JMP &1DE4
2E65 A9 03    LDA #&03
2E67 85 08    STA &08
2E69 85 0C    STA &0C
2E6B B1 23    LDA (&23),Y
2E6D C9 33    CMP #&33
2E6F F0 08    BEQ &2E79
2E71 A9 02    LDA #&02
2E73 85 08    STA &08
2E75 A9 09    LDA #&09
2E77 85 0C    STA &0C
2E79 B5 4F    LDA 4F,X
2E7B 85 00    STA &00
2E7D B5 50    LDA 50,X
2E7F 85 01    STA &01
2E81 A9 30    LDA #&30
2E83 85 02    STA &02
2E85 A9 38    LDA #&38
2E87 85 03    STA &03
2E89 85 04    STA &04
2E8B 4C C4 12 JMP &12C4
2E8E 18       CLC
2E8F A5 80    LDA &80
2E91 69 04    ADC #&04
2E93 C5 0D    CMP &0D
2E95 90 1A    BCC &2EB1
2E97 A5 0D    LDA &0D
2E99 69 01    ADC #&01
2E9B C5 80    CMP &80
2E9D 90 12    BCC &2EB1
2E9F A5 81    LDA &81
2EA1 69 1A    ADC #&1A
2EA3 C5 0E    CMP &0E
2EA5 90 0A    BCC &2EB1
2EA7 A5 0E    LDA &0E
2EA9 69 09    ADC #&09
2EAB C5 81    CMP &81
2EAD 90 02    BCC &2EB1
2EAF 85 12    STA &12
2EB1 60       RTS
2EB2 8A       TXA
2EB3 48       PHA
2EB4 98       TYA
2EB5 48       PHA
2EB6 D6 51    DEC 51,X
2EB8 F0 13    BEQ &2ECD
2EBA B5 4D    LDA 4D,X
2EBC C9 FF    CMP #&FF
2EBE D0 4A    BNE &2F0A
2EC0 D6 4D    DEC 4D,X
2EC2 18       CLC
2EC3 98       TYA
2EC4 69 04    ADC #&04
2EC6 A8       TAY
2EC7 20 65 1E JSR &1E65
2ECA 4C 0A 1F JMP &1F0A
2ECD B1 23    LDA (&23),Y
2ECF 95 51    STA 51,X
2ED1 A5 7F    LDA &7F
2ED3 95 4D    STA 4D,X
2ED5 A9 00    LDA #&00
2ED7 95 4E    STA 4E,X
2ED9 20 6D 18 JSR &186D
2EDC A2 01    LDX #&01
2EDE A5 13    LDA &13
2EE0 C9 08    CMP #&08
2EE2 D0 13    BNE &2EF7
2EE4 A0 1E    LDY #&1E
2EE6 B1 7D    LDA (&7D),Y
2EE8 10 08    BPL &2EF2
2EEA A0 21    LDY #&21
2EEC B1 7D    LDA (&7D),Y
2EEE 10 02    BPL &2EF2
2EF0 A2 FF    LDX #&FF
2EF2 8E 7B 27 STX &277B
2EF5 D0 13    BNE &2F0A
2EF7 C9 0A    CMP #&0A
2EF9 D0 0F    BNE &2F0A
2EFB B1 7D    LDA (&7D),Y
2EFD 10 08    BPL &2F07
2EFF A0 03    LDY #&03
2F01 B1 7D    LDA (&7D),Y
2F03 10 02    BPL &2F07
2F05 A2 FF    LDX #&FF
2F07 8E 8F 27 STX &278F
2F0A 68       PLA
2F0B A8       TAY
2F0C 68       PLA
2F0D AA       TAX
2F0E 60       RTS
2F0F 20 CA 1D JSR &1DCA
2F12 85 7B    STA &7B
2F14 48       PHA
2F15 0A       ASL A
2F16 0A       ASL A
2F17 18       CLC
2F18 65 7B    ADC &7B
2F1A AA       TAX
2F1B A9 01    LDA #&01
2F1D 95 51    STA 51,X
2F1F A9 80    LDA #&80
2F21 95 50    STA 50,X
2F23 B1 23    LDA (&23),Y
2F25 C8       INY
2F26 C9 FF    CMP #&FF
2F28 F0 E2    BEQ &2F0C
2F2A 85 7F    STA &7F
2F2C 20 B2 1E JSR &1EB2
2F2F C8       INY
2F30 C8       INY
2F31 C8       INY
2F32 C8       INY
2F33 C8       INY
2F34 68       PLA
2F35 18       CLC
2F36 69 01    ADC #&01
2F38 D0 D8    BNE &2F12
2F3A 20 C3 15 JSR &15C3
2F3D A9 00    LDA #&00          ; Demo mode
2F3F 85 28    STA &28
2F41 85 32    STA &32
2F43 85 11    STA &11
2F45 85 29    STA &29
2F47 20 05 11 JSR &1105         ; Set up some sort of table at &80
2F4A 20 68 1D JSR &1D68         ; Disable player maybe?
2F4D 20 55 09 JSR &0955         ; Think this draws the screen
2F50 A9 00    LDA #&00          ; Demo mode loop
2F52 85 28    STA &28
2F54 20 75 09 JSR &0975         ; Handle palette change effects
2F57 20 DE 1D JSR &1DDE         ; Something to do with moving yellow things
2F5A A9 09    LDA #&09
2F5C 20 EB 0B JSR &0BEB         ; Check for keypress
2F5F F0 12    BEQ &2F73         ; If pressed..
2F61 C6 32    DEC &32           ; Otherwise dec &32 (timer)
2F63 30 EB    BMI &2F50         ; If still > &80, jump to &2F50
2F65 E6 13    INC &13           ; Increase level
2F67 A5 13    LDA &13
2F69 C9 0C    CMP #&0C          ; Check for level number 12
2F6B 90 D0    BCC &2F3D
2F6D A9 00    LDA #&00          ; Reset to 0
2F6F 85 13    STA &13
2F71 F0 CA    BEQ &2F3D         ; Loop back around
2F73 A9 00    LDA #&00          ; Key pressed, so start setting up
2F75 85 15    STA &15
2F77 85 16    STA &16
2F79 85 17    STA &17
2F7B 20 CE 1A JSR &1ACE
2F7E A9 96    LDA #&96
2F80 85 7B    STA &7B
2F82 A9 1F    LDA #&1F
2F84 85 7C    STA &7C
2F86 A0 17    LDY #&17
2F88 B1 7B    LDA (&7B),Y
2F8A 99 A9 15 STA &15A9,Y
2F8D 88       DEY
2F8E D0 F8    BNE &2F88
2F90 84 31    STY &31
2F92 84 11    STY &11
2F94 84 13    STY &13
2F96 60       RTS
2F97 08       PHP
2F98 46 00    LSR &00
2F9A 80 05    BRA &2FA1
2F9C 1A       INC A
2F9D 01 80    ORA (&80,X)
2F9F 00       BRK
2FA0 00       BRK
2FA1 00       BRK
2FA2 00       BRK
2FA3 00       BRK
2FA4 00       BRK
2FA5 00       BRK
2FA6 00       BRK
2FA7 00       BRK
2FA8 00       BRK
2FA9 01 05    ORA (&05,X)
2FAB D2 16    CMP (16)
2FAD 00       BRK
2FAE 85 7B    STA &7B           ; *** Draw object function ***
2FB0 AA       TAX               ; X = A
2FB1 0A       ASL A
2FB2 0A       ASL A             ; A *= 4
2FB3 18       CLC
2FB4 65 7B    ADC &7B
2FB6 85 7B    STA &7B
2FB8 A9 00    LDA #&00
2FBA A8       TAY
2FBB 69 00    ADC #&00
2FBD 85 7C    STA &7C
2FBF A5 7B    LDA &7B
2FC1 69 46    ADC #&46
2FC3 85 7B    STA &7B
2FC5 A5 7C    LDA &7C
2FC7 69 28    ADC #&28
2FC9 85 7C    STA &7C
2FCB B1 7B    LDA (&7B),Y       ; Get byte 1
2FCD C8       INY
2FCE 85 02    STA &02
2FD0 B1 7B    LDA (&7B),Y       ; Get byte 2
2FD2 C8       INY
2FD3 85 03    STA &03           ; Store byte 1/2 at &02/&03 ready for indirect lookup
2FD5 B1 7B    LDA (&7B),Y       ; Get byte 3
2FD7 C8       INY
2FD8 85 0B    STA &0B           ; Store at &08 and &0B
2FDA 85 08    STA &08
2FDC B1 7B    LDA (&7B),Y       ; Get byte 4
2FDE C8       INY
2FDF 85 0C    STA &0C           ; Store at &0C
2FE1 B1 7B    LDA (&7B),Y       ; Get byte 5 (= palette/pixel lookup)
2FE3 85 21    STA &21           ; and store at &21
2FE5 A5 97    LDA &97
2FE7 48       PHA               ; Save &97 on stack
2FE8 A5 98    LDA &98
2FEA 48       PHA               ; Save &98 on stack
2FEB A9 80    LDA #&80
2FED 85 98    STA &98           ; ?&98=&80
2FEF E0 0D    CPX #&0D          ; Waterfall
2FF1 F0 0A    BEQ &2FFD
2FF3 E0 30    CPX #&30          ; Smokebelch
2FF5 F0 06    BEQ &2FFD
2FF7 20 41 11 JSR &1141         ; Draw tile routine A?
2FFA 4C 00 20 JMP &2000         ; Skip the alternative routine
2FFD 20 6B 11 JSR &116B         ; Draw tile routine B (for waterfall and smokebelch)
3000 68       PLA               ; Pull into A
3001 85 98    STA &98           ; Store at &98
3003 68       PLA               ; Pull into A
3004 85 97    STA &97           ; Store at &97
3006 60       RTS               ; Return
3007 20 FD 15 JSR &15FD
300A A0 00    LDY #&00
300C B1 7B    LDA (&7B),Y
300E 48       PHA
300F C9 F0    CMP #&F0
3011 F0 24    BEQ &3037
3013 C9 22    CMP #&22
3015 D0 0B    BNE &3022
3017 AD F2 17 LDA &17F2
301A 29 0F    AND #&0F
301C C9 07    CMP #&07
301E F0 52    BEQ &3072
3020 D0 15    BNE &3037
3022 C9 29    CMP #&29
3024 90 15    BCC &303B
3026 C9 2C    CMP #&2C
3028 B0 11    BCS &303B
302A 38       SEC
302B E9 29    SBC #&29
302D AA       TAX
302E BD F6 17 LDA &17F6,X
3031 29 0F    AND #&0F
3033 C9 07    CMP #&07
3035 F0 3B    BEQ &3072
3037 68       PLA
3038 A9 FF    LDA #&FF
303A 60       RTS
303B C9 06    CMP #&06
303D B0 09    BCS &3048
303F C9 03    CMP #&03
3041 90 05    BCC &3048
3043 E9 03    SBC #&03
3045 4C 2D 20 JMP &202D
3048 C9 27    CMP #&27
304A B0 09    BCS &3055
304C C9 25    CMP #&25
304E 90 05    BCC &3055
3050 E9 25    SBC #&25
3052 4C 2D 20 JMP &202D
3055 C9 2D    CMP #&2D
3057 D0 1D    BNE &3076
3059 A9 07    LDA #&07
305B C5 89    CMP &89
305D F0 D8    BEQ &3037
305F 85 89    STA &89
3061 A9 03    LDA #&03
3063 85 90    STA &90
3065 A5 14    LDA &14
3067 F0 05    BEQ &306E
3069 C6 1B    DEC &1B           ; Decrement number of lives (Death by fountain thing, and smoke belch)
306B 20 FC 1A JSR &1AFC
306E A9 FF    LDA #&FF
3070 85 96    STA &96
3072 68       PLA
3073 A9 00    LDA #&00
3075 60       RTS
3076 C9 2E    CMP #&2E
3078 D0 09    BNE &3083
307A AD F8 17 LDA &17F8
307D C9 F7    CMP #&F7
307F D0 D8    BNE &3059
3081 F0 EF    BEQ &3072
3083 C9 2F    CMP #&2F
3085 F0 D2    BEQ &3059
3087 C9 30    CMP #&30
3089 D0 08    BNE &3093
308B A5 26    LDA &26
308D C9 01    CMP #&01
308F F0 E1    BEQ &3072
3091 D0 C6    BNE &3059
3093 C9 80    CMP #&80
3095 B0 0A    BCS &30A1
3097 A0 01    LDY #&01
3099 B1 7B    LDA (&7B),Y
309B C9 80    CMP #&80
309D B0 02    BCS &30A1
309F 68       PLA
30A0 60       RTS
30A1 A6 89    LDX &89
30A3 E0 05    CPX #&05
30A5 F0 03    BEQ &30AA
30A7 CA       DEX
30A8 D0 C8    BNE &3072
30AA 20 F9 18 JSR &18F9
30AD 4C 72 20 JMP &2072
30B0 F8       SED
30B1 20 45 21 JSR &2145
30B4 55 21    EOR 21,X
30B6 5E 21 A6 LSR &A621,X
30B9 21 B9    AND (&B9,X)
30BB 21 C6    AND (&C6,X)
30BD 21 46    AND (&46,X)
30BF 22       ???
30C0 41 22    EOR (&22,X)
30C2 16 26    ASL 26,X
30C4 90 26    BCC &30EC
30C6 28       PLP
30C7 25 62    AND &62
30C9 22       ???
30CA E1 22    SBC (&22,X)
30CC E8       INX
30CD 22       ???
30CE ED 22 66 SBC &6622
30D1 23       ???
30D2 85 23    STA &23
30D4 8A       TXA
30D5 23       ???
30D6 EE 23 01 INC &0123
30D9 24 E8    BIT &E8
30DB 25 E7    AND &E7
30DD 25 E7    AND &E7
30DF 25 06    AND &06
30E1 24 61    BIT &61
30E3 24 86    BIT &86
30E5 24 8B    BIT &8B
30E7 24 1C    BIT &1C
30E9 25 28    AND &28
30EB 25 29    AND &29
30ED 25 D8    AND &D8
30EF 25 28    AND &28
30F1 25 98    AND &98
30F3 27       ???
30F4 94 26    STY 26,X
30F6 28       PLP
30F7 25 01    AND &01
30F9 00       BRK
30FA F0 F1    BEQ &30ED
30FC 1B       ???
30FD 34 10    BIT 10,X
30FF BE 37 10 LDX &1037,Y
3102 AF       ???
3103 21 10    AND (&10,X)
3105 A8       TAY
3106 34 36    BIT 36,X
3108 BE 34 3D LDX &3D34,Y
310B BE 35 41 LDX &4135,Y
310E 76 36    ROR 36,X
3110 45 76    EOR &76
3112 02       ???
3113 00       BRK
3114 84 F2    STY &F2
3116 12 02    ORA (02)
3118 4C A8 F2 JMP &F2A8
311B 0C 07 00 TSB &0007
311E 60       RTS
311F F1 0C    SBC (&0C),Y
3121 09 20    ORA #&20
3123 60       RTS
3124 08       PHP
3125 20 68 F2 JSR &F268
3128 0C 0F 00 TSB &000F
312B 96 F1    STX F1,Y
312D 04 0F    TSB &0F
312F 3C 60 F1 BIT &F160,X
3132 0A       ASL A
3133 0F       ???
3134 30 A8    BMI &30DE
3136 F1 10    SBC (&10),Y
3138 F0 04    BEQ &313E
313A 34 10    BIT 10,X
313C 00       BRK
313D 46 13    LSR &13
313F 06 AC    ASL &AC
3141 20 0F 90 JSR &900F
3144 F3       ???
3145 00       BRK
3146 06 BA    ASL &BA
3148 00       BRK
3149 3E 73 00 ROL &0073,X
314C 4C 73 00 JMP &0073
314F 32 BA    AND (BA)
3151 00       BRK
3152 48       PHA
3153 BA       TSX
3154 FF       ???
3155 04 4F    TSB &4F
3157 46 00    LSR &00
3159 80 4F    BRA &31AA
315B 8E 00 80 STX &8000
315E 02       ???
315F 4C 60 F2 JMP &F260
3162 18       CLC
3163 01 00    ORA (&00,X)
3165 F0 F1    BEQ &3158
3167 1B       ???
3168 38       SEC
3169 09 76    ORA #&76
316B 38       SEC
316C 45 76    EOR &76
316E 34 0C    BIT 0C,X
3170 BE 34 3C LDX &3C34,Y
3173 BE 02 00 LDX &0002,Y
3176 A8       TAY
3177 F2 0C    SBC (0C)
3179 0F       ???
317A 00       BRK
317B 60       RTS
317C F1 08    SBC (&08),Y
317E 0F       ???
317F 40       RTI
3180 60       RTS
3181 F1 08    SBC (&08),Y
3183 07       ???
3184 1C 60 F1 TRB &F160
3187 06 0F    ASL &0F
3189 00       BRK
318A A8       TAY
318B F1 0E    SBC (&0E),Y
318D 0F       ???
318E 34 A8    BIT A8,X
3190 F1 0E    SBC (&0E),Y
3192 09 24    ORA #&24
3194 60       RTS
3195 08       PHP
3196 24 68    BIT &68
3198 F2 03    SBC (03)
319A 09 24    ORA #&24
319C A8       TAY
319D 08       PHP
319E 24 B0    BIT &B0
31A0 F2 03    SBC (03)
31A2 22       ???
31A3 24 F0    BIT &F0
31A5 F3       ???
31A6 00       BRK
31A7 0C 73 00 TSB &0073
31AA 42       ???
31AB 73       ???
31AC 00       BRK
31AD 06 BA    ASL &BA
31AF 00       BRK
31B0 18       CLC
31B1 BA       TSX
31B2 00       BRK
31B3 36 BA    ROL BA,X
31B5 00       BRK
31B6 48       PHA
31B7 BA       TSX
31B8 FF       ???
31B9 08       PHP
31BA FC 46 01 ??? &0146
31BD 80 4F    BRA &320E
31BF 46 00    LSR &00
31C1 80 FC    BRA &31BF
31C3 8E 01 80 STX &8001
31C6 03       ???
31C7 4C AC F2 JMP &F2AC
31CA 0C 01 00 TSB &0001
31CD F0 F1    BEQ &31C0
31CF 1B       ???
31D0 38       SEC
31D1 15 BE    ORA BE,X
31D3 38       SEC
31D4 2B       ???
31D5 BE 38 0A LDX &0A38,Y
31D8 76 39    ROR 39,X
31DA 0A       ASL A
31DB A8       TAY
31DC 38       SEC
31DD 0A       ASL A
31DE BE 38 3B LDX &3B38,Y
31E1 BE 39 3B LDX &3B39,Y
31E4 AC 38 2B LDY &2B38
31E7 76 34    ROR 34,X
31E9 41 BE    EOR (&BE,X)
31EB 37       ???
31EC 41 AF    EOR (&AF,X)
31EE 21 41    AND (&41,X)
31F0 A8       TAY
31F1 F0 40    BEQ &3233
31F3 34 10    BIT 10,X
31F5 40       RTI
31F6 46 02    LSR &02
31F8 00       BRK
31F9 60       RTS
31FA F2 18    SBC (18)
31FC 07       ???
31FD 3F       ???
31FE 60       RTS
31FF F1 03    SBC (&03),Y
3201 1F       ???
3202 4A       LSR A
3203 60       RTS
3204 1E 4C 6C ASL &6C4C,X
3207 F2 08    SBC (08)
3209 1F       ???
320A 38       SEC
320B 60       RTS
320C 1E 3A 6C ASL &6C3A,X
320F F2 08    SBC (08)
3211 20 40 90 JSR &9040
3214 07       ???
3215 1C 60 F1 TRB &F160
3218 03       ???
3219 08       PHP
321A 20 68 F2 JSR &F268
321D 0C 09 20 TSB &2009
3220 60       RTS
3221 09 20    ORA #&20
3223 A8       TAY
3224 0F       ???
3225 00       BRK
3226 60       RTS
3227 F1 08    SBC (&08),Y
3229 0F       ???
322A 28       PLP
322B 60       RTS
322C F1 04    SBC (&04),Y
322E 0F       ???
322F 00       BRK
3230 A8       TAY
3231 F1 04    SBC (&04),Y
3233 0F       ???
3234 10 A8    BPL &31DE
3236 F1 06    SBC (&06),Y
3238 0F       ???
3239 24 A8    BIT &A8
323B F1 08    SBC (&08),Y
323D 3A       DEC A
323E 37       ???
323F 6B       ???
3240 F3       ???
3241 00       BRK
3242 00       BRK
3243 46 01    LSR &01
3245 80 00    BRA &3247
3247 28       PLP
3248 73       ???
3249 00       BRK
324A 28       PLP
324B BA       TSX
324C 00       BRK
324D 30 BA    BMI &3209
324F 00       BRK
3250 04 73    TSB &73
3252 00       BRK
3253 0C 73 00 TSB &0073
3256 04 BA    TSB &BA
3258 00       BRK
3259 12 BA    ORA (BA)
325B 00       BRK
325C 18       CLC
325D BA       TSX
325E 00       BRK
325F 37       ???
3260 73       ???
3261 FF       ???
3262 28       PLP
3263 1C 2A 28 TRB &282A
3266 48       PHA
3267 2A       ROL A
3268 2D 2C 74 AND &742C
326B 2D 38 74 AND &7438
326E 0B       ???
326F 10 68    BPL &32D9
3271 0A       ASL A
3272 10 70    BPL &32E4
3274 F2 0A    SBC (0A)
3276 0D 30 37 ORA &3730
3279 F2 16    SBC (16)
327B 0D 34 37 ORA &3734
327E F2 16    SBC (16)
3280 02       ???
3281 00       BRK
3282 2A       ROL A
3283 F2 20    SBC (20)
3285 02       ???
3286 0C 68 F2 TSB &F268
3289 16 02    ASL 02,X
328B 18       CLC
328C 22       ???
328D F2 18    SBC (18)
328F 02       ???
3290 28       PLP
3291 68       PLA
3292 F2 16    SBC (16)
3294 02       ???
3295 2C 68 F2 BIT &F268
3298 02       ???
3299 02       ???
329A 38       SEC
329B 68       PLA
329C F2 02    SBC (02)
329E 02       ???
329F 3C 68 F2 BIT &F268,X
32A2 0C 02 4C TSB &4C02
32A5 22       ???
32A6 F2 18    SBC (18)
32A8 01 0C    ORA (&0C,X)
32AA E8       INX
32AB F1 0C    SBC (&0C),Y
32AD 01 0C    ORA (&0C,X)
32AF F2 F1    SBC (F1)
32B1 0C 01 38 TSB &3801
32B4 E8       INX
32B5 F1 08    SBC (&08),Y
32B7 01 38    ORA (&38,X)
32B9 F2 F1    SBC (F1)
32BB 08       PHP
32BC 01 00    ORA (&00,X)
32BE E8       INX
32BF 01 00    ORA (&00,X)
32C1 F2 24    SBC (24)
32C3 00       BRK
32C4 22       ???
32C5 F1 0B    SBC (&0B),Y
32C7 24 3C    BIT &3C
32C9 22       ???
32CA F1 05    SBC (&05),Y
32CC 25 1C    AND &1C
32CE A8       TAY
32CF F1 03    SBC (&03),Y
32D1 26 40    ROL &40
32D3 A8       TAY
32D4 F1 03    SBC (&03),Y
32D6 2D 2C 20 AND &202C
32D9 F1 05    SBC (&05),Y
32DB 2F       ???
32DC 2F       ???
32DD E8       INX
32DE F1 03    SBC (&03),Y
32E0 F3       ???
32E1 00       BRK
32E2 1C 32 00 TRB &0032
32E5 49 32    EOR #&32
32E7 FF       ???
32E8 00       BRK
32E9 4F       ???
32EA CE 00 80 DEC &8000
32ED 2D 41 20 AND &2041
32F0 F1 02    SBC (&02),Y
32F2 0D 40 34 ORA &3440
32F5 F2 14    SBC (14)
32F7 0D 44 34 ORA &3444
32FA F2 14    SBC (14)
32FC 28       PLP
32FD 35 6A    AND 6A,X
32FF 28       PLP
3300 1D B2 28 ORA &28B2,X
3303 31 B2    AND (&B2),Y
3305 02       ???
3306 00       BRK
3307 28       PLP
3308 F2 16    SBC (16)
330A 06 34    ASL &34
330C 28       PLP
330D F2 0A    SBC (0A)
330F 02       ???
3310 38       SEC
3311 60       RTS
3312 F2 0C    SBC (0C)
3314 02       ???
3315 4C 28 F2 JMP &F228
3318 0A       ASL A
3319 24 00    BIT &00
331B 20 F1 09 JSR &09F1
331E 2B       ???
331F 00       BRK
3320 B2 F2    LDA (F2)
3322 08       PHP
3323 2A       ROL A
3324 20 B2 F2 JSR &F2B2
3327 08       PHP
3328 28       PLP
3329 34 B2    BIT B2,X
332B F2 08    SBC (08)
332D 28       PLP
332E 4C B2 F2 JMP &F2B2
3331 08       PHP
3332 28       PLP
3333 03       ???
3334 B2 28    LDA (28)
3336 23       ???
3337 B2 24    LDA (24)
3339 2C 20 F1 BIT &F120
333C 05 24    ORA &24
333E 48       PHA
333F 20 F1 02 JSR &02F1
3342 24 0C    BIT &0C
3344 60       RTS
3345 F1 0D    SBC (&0D),Y
3347 24 48    BIT &48
3349 60       RTS
334A F1 02    SBC (&02),Y
334C 24 00    BIT &00
334E A8       TAY
334F F1 0A    SBC (&0A),Y
3351 24 30    BIT &30
3353 A8       TAY
3354 F1 04    SBC (&04),Y
3356 24 48    BIT &48
3358 A8       TAY
3359 F1 02    SBC (&02),Y
335B 24 00    BIT &00
335D F0 F1    BEQ &3350
335F 10 24    BPL &3385
3361 48       PHA
3362 F0 F1    BEQ &3355
3364 02       ???
3365 F3       ???
3366 00       BRK
3367 04 2A    TSB &2A
3369 00       BRK
336A 0C 2A 00 TSB &002A
336D 31 2A    AND (&2A),Y
336F 00       BRK
3370 38       SEC
3371 2A       ROL A
3372 00       BRK
3373 49 2A    EOR #&2A
3375 00       BRK
3376 35 72    AND 72,X
3378 00       BRK
3379 04 BA    TSB &BA
337B 00       BRK
337C 1D BA 00 ORA &00BA,X
337F 24 BA    BIT &BA
3381 00       BRK
3382 31 BA    AND (&BA),Y
3384 FF       ???
3385 00       BRK
3386 24 1A    BIT &1A
3388 03       ???
3389 82       ???
338A 34 1A    BIT 1A,X
338C AE 37 1A LDX &1A37
338F 9F       ???
3390 34 2E    BIT 2E,X
3392 AE 37 2E LDX &2E37
3395 9F       ???
3396 38       SEC
3397 1C 56 39 TRB &3956
339A 1C 44 38 TRB &3844
339D 32 56    AND (56)
339F 39 32 44 AND &4432,Y
33A2 03       ???
33A3 00       BRK
33A4 20 F2 12 JSR &12F2
33A7 02       ???
33A8 00       BRK
33A9 88       DEY
33AA F2 0F    SBC (0F)
33AC 02       ???
33AD 4C 20 F2 JMP &F220
33B0 21 0A    AND (&0A,X)
33B2 04 8C    TSB &8C
33B4 F2 06    SBC (06)
33B6 0B       ???
33B7 04 88    TSB &88
33B9 01 00    ORA (&00,X)
33BB E0 F1    CPX #&F1
33BD 1B       ???
33BE 01 00    ORA (&00,X)
33C0 EA       NOP
33C1 F1 1B    SBC (&1B),Y
33C3 01 00    ORA (&00,X)
33C5 F4 F1    ??? &F1
33C7 1B       ???
33C8 0F       ???
33C9 14 88    TRB &88
33CB F1 14    SBC (&14),Y
33CD 13       ???
33CE 16 9E    ASL 9E,X
33D0 13       ???
33D1 38       SEC
33D2 9E 0F 18 STZ &180F,X
33D5 30 F1    BMI &33C8
33D7 10 13    BPL &33EC
33D9 18       CLC
33DA 46 13    LSR &13
33DC 20 46 13 JSR &1346
33DF 36 46    ROL 46,X
33E1 13       ???
33E2 2E 46 30 ROL &3046
33E5 24 C8    BIT &C8
33E7 30 10    BMI &33F9
33E9 C8       INY
33EA 30 38    BMI &3424
33EC C8       INY
33ED F3       ???
33EE 00       BRK
33EF 16 AC    ASL AC,X
33F1 00       BRK
33F2 38       SEC
33F3 AC 00 18 LDY &1800
33F6 54 00    ??? &00
33F8 20 54 00 JSR &0054
33FB 36 54    ROL 54,X
33FD 00       BRK
33FE 2E 54 FF ROL &FF54
3401 00       BRK
3402 47       ???
3403 C6 00    DEC &00
3405 80 30    BRA &3437
3407 10 40    BPL &3449
3409 30 38    BMI &3443
340B 40       RTI
340C 30 04    BMI &3412
340E 88       DEY
340F 30 1C    BMI &342D
3411 88       DEY
3412 F1 02    SBC (&02),Y
3414 02       ???
3415 00       BRK
3416 20 F2 22 JSR &22F2
3419 03       ???
341A 40       RTI
341B 20 F2 0B JSR &0BF2
341E 02       ???
341F 4C 20 F2 JMP &F220
3422 0B       ???
3423 28       PLP
3424 4C 58 04 JMP &0458
3427 4C 60 F2 JMP &F260
342A 0B       ???
342B 01 FF    ORA (&FF,X)
342D 58       CLI
342E F1 17    SBC (&17),Y
3430 01 00    ORA (&00,X)
3432 A0 F1    LDY #&F1
3434 1B       ???
3435 01 00    ORA (&00,X)
3437 EA       NOP
3438 F1 1B    SBC (&1B),Y
343A 01 00    ORA (&00,X)
343C F4 F1    ??? &F1
343E 1B       ???
343F 22       ???
3440 04 E0    TSB &E0
3442 F1 02    SBC (&02),Y
3444 27       ???
3445 0E E0 F1 ASL &F1E0
3448 38       SEC
3449 22       ???
344A 46 E0    LSR &E0
344C F1 02    SBC (&02),Y
344E 28       PLP
344F 08       PHP
3450 62       ???
3451 28       PLP
3452 0B       ???
3453 62       ???
3454 28       PLP
3455 18       CLC
3456 62       ???
3457 28       PLP
3458 1B       ???
3459 62       ???
345A 28       PLP
345B 2C 62 28 BIT &2862
345E 2F       ???
345F 62       ???
3460 F3       ???
3461 00       BRK
3462 18       CLC
3463 20 00 1C JSR &1C00
3466 20 00 36 JSR &3600
3469 20 00 3A JSR &3A00
346C 20 00 08 JSR &0800
346F 6A       ROR A
3470 00       BRK
3471 0C 6A 00 TSB &006A
3474 18       CLC
3475 6A       ROR A
3476 00       BRK
3477 1C 6A 00 TRB &006A
347A 2C 6A 00 BIT &006A
347D 30 6A    BMI &34E9
347F 00       BRK
3480 04 AA    TSB &AA
3482 00       BRK
3483 08       PHP
3484 AA       TAX
3485 FF       ???
3486 00       BRK
3487 0C 24 03 TSB &0324
348A 82       ???
348B 28       PLP
348C 00       BRK
348D 60       RTS
348E F2 09    SBC (09)
3490 29 00    AND #&00
3492 A8       TAY
3493 F2 09    SBC (09)
3495 0D 04 60 ORA &6004
3498 F2 11    SBC (11)
349A 28       PLP
349B 08       PHP
349C 60       RTS
349D F2 08    SBC (08)
349F 2D 08 A0 AND &A008
34A2 28       PLP
34A3 1C 20 F2 TRB &F220
34A6 0B       ???
34A7 2A       ROL A
34A8 1C 78 F2 TRB &F278
34AB 06 28    ASL &28
34AD 1C A8 F2 TRB &F2A8
34B0 09 28    ORA #&28
34B2 1F       ???
34B3 20 F2 02 JSR &02F2
34B6 0D 24 34 ORA &3424
34B9 F2 16    SBC (16)
34BB 0D 28 34 ORA &3428
34BE F2 16    SBC (16)
34C0 2D 23 20 AND &2023
34C3 F1 03    SBC (&03),Y
34C5 28       PLP
34C6 2D 20 F2 AND &F220
34C9 02       ???
34CA 28       PLP
34CB 30 20    BMI &34ED
34CD F2 0B    SBC (0B)
34CF 2B       ???
34D0 30 78    BMI &354A
34D2 F2 06    SBC (06)
34D4 28       PLP
34D5 30 A8    BMI &347F
34D7 F2 09    SBC (09)
34D9 28       PLP
34DA 44 60    ??? &60
34DC F2 08    SBC (08)
34DE 0D 48 60 ORA &6048
34E1 F2 11    SBC (11)
34E3 2C 4C 20 BIT &204C
34E6 F2 08    SBC (08)
34E8 28       PLP
34E9 4C 60 F2 JMP &F260
34EC 08       PHP
34ED 2D 44 A0 AND &A044
34F0 24 00    BIT &00
34F2 F0 F1    BEQ &34E5
34F4 14 24    TRB &24
34F6 1C 68 F1 TRB &F168
34F9 02       ???
34FA 24 2C    BIT &2C
34FC 68       PLA
34FD F1 02    SBC (&02),Y
34FF 24 18    BIT &18
3501 A8       TAY
3502 F1 03    SBC (&03),Y
3504 24 2C    BIT &2C
3506 A8       TAY
3507 F1 03    SBC (&03),Y
3509 2F       ???
350A 04 E8    TSB &E8
350C 2F       ???
350D 14 E8    TRB &E8
350F 2F       ???
3510 24 E8    BIT &E8
3512 2F       ???
3513 29 E8    AND #&E8
3515 2F       ???
3516 48       PHA
3517 E8       INX
3518 2F       ???
3519 38       SEC
351A E8       INX
351B F3       ???
351C 00       BRK
351D 0C 70 00 TSB &0070
3520 20 30 00 JSR &0030
3523 2D 30 00 AND &0030
3526 41 70    EOR (&70,X)
3528 FF       ???
3529 28       PLP
352A 00       BRK
352B 68       PLA
352C F2 08    SBC (08)
352E 0D 04 80 ORA &8004
3531 F2 05    SBC (05)
3533 0D 08 70 ORA &7008
3536 F2 04    SBC (04)
3538 0D 0C 60 ORA &600C
353B F2 04    SBC (04)
353D 0D 10 50 ORA &5010
3540 F2 04    SBC (04)
3542 0D 14 50 ORA &5014
3545 F2 02    SBC (02)
3547 0D 18 50 ORA &5018
354A F2 02    SBC (02)
354C 24 00    BIT &00
354E 60       RTS
354F F1 02    SBC (&02),Y
3551 28       PLP
3552 08       PHP
3553 A4 28    LDY &28
3555 0C 94 F2 TSB &F294
3558 03       ???
3559 28       PLP
355A 10 84    BPL &34E0
355C F2 05    SBC (05)
355E 28       PLP
355F 14 74    TRB &74
3561 F2 07    SBC (07)
3563 28       PLP
3564 18       CLC
3565 74 2F    STZ 2F,X
3567 08       PHP
3568 90 2F    BCC &3599
356A 0C 80 2F TSB &2F80
356D 10 70    BPL &35DF
356F 2F       ???
3570 14 60    TRB &60
3572 2F       ???
3573 18       CLC
3574 60       RTS
3575 28       PLP
3576 30 20    BMI &3598
3578 F2 0D    SBC (0D)
357A 29 30    AND #&30
357C 84 F2    STY &F2
357E 05 28    ORA &28
3580 38       SEC
3581 A4 24    LDY &24
3583 00       BRK
3584 A8       TAY
3585 F1 07    SBC (&07),Y
3587 0D 34 70 ORA &7034
358A F2 07    SBC (07)
358C 0D 38 60 ORA &6038
358F F2 06    SBC (06)
3591 0D 3C 50 ORA &503C
3594 F2 06    SBC (06)
3596 0D 40 50 ORA &5040
3599 F2 03    SBC (03)
359B 28       PLP
359C 44 20    ??? &20
359E F2 0A    SBC (0A)
35A0 0D 48 34 ORA &3448
35A3 F2 18    SBC (18)
35A5 28       PLP
35A6 4C 20 F2 JMP &F220
35A9 1B       ???
35AA 23       ???
35AB 00       BRK
35AC F0 F1    BEQ &359F
35AE 02       ???
35AF 27       ???
35B0 0A       ASL A
35B1 F0 F1    BEQ &35A4
35B3 2E 23 38 ROL &3823
35B6 F0 23    BEQ &35DB
35B8 40       RTI
35B9 F0 F1    BEQ &35AC
35BB 03       ???
35BC 28       PLP
35BD 3C 94 F2 BIT &F294,X
35C0 0D 24 28 ORA &2824
35C3 A8       TAY
35C4 F1 08    SBC (&08),Y
35C6 2F       ???
35C7 38       SEC
35C8 90 2F    BCC &35F9
35CA 3C 80 2D BIT &2D80,X
35CD 44 70    ??? &70
35CF 2E 48 20 ROL &2048
35D2 28       PLP
35D3 34 B2    BIT B2,X
35D5 F1 04    SBC (&04),Y
35D7 F3       ???
35D8 00       BRK
35D9 36 BA    ROL BA,X
35DB 00       BRK
35DC 39 BA 00 AND &00BA,Y
35DF 18       CLC
35E0 7C 00 41 JMP (&4100,X)
35E3 20 00 40 JSR &4000
35E6 BA       TSX
35E7 FF       ???
35E8 01 04    ORA (&04,X)
35EA 60       RTS
35EB F1 03    SBC (&03),Y
35ED 27       ???
35EE 0C 60 F1 TSB &F160
35F1 38       SEC
35F2 27       ???
35F3 0C A8 F1 TSB &F1A8
35F6 38       SEC
35F7 27       ???
35F8 04 F0    TSB &F0
35FA F1 40    SBC (&40),Y
35FC 01 44    ORA (&44,X)
35FE A8       TAY
35FF F1 04    SBC (&04),Y
3601 02       ???
3602 00       BRK
3603 20 F2 23 JSR &23F2
3606 01 FE    ORA (&FE,X)
3608 F0 F1    BEQ &35FB
360A 02       ???
360B 02       ???
360C 4C 20 F2 JMP &F220
360F 23       ???
3610 01 4C    ORA (&4C,X)
3612 F0 F1    BEQ &3605
3614 02       ???
3615 F3       ???
3616 01 02    ORA (&02,X)
3618 B8       CLV
3619 F1 02    SBC (&02),Y
361B 02       ???
361C 00       BRK
361D 20 F2 13 JSR &13F2
3620 02       ???
3621 00       BRK
3622 A4 F2    LDY &F2
3624 05 02    ORA &02
3626 40       RTI
3627 4A       LSR A
3628 F2 0B    SBC (0B)
362A 02       ???
362B 40       RTI
362C A0 F2    LDY #&F2
362E 0E 02 4C ASL &4C02
3631 20 F2 23 JSR &23F2
3634 01 00    ORA (&00,X)
3636 F0 F1    BEQ &3629
3638 1B       ???
3639 34 14    BIT 14,X
363B BE 01 14 LDX &1401,Y
363E B8       CLV
363F F1 03    SBC (&03),Y
3641 34 28    BIT 28,X
3643 BE 01 28 LDX &2801,Y
3646 B8       CLV
3647 F1 03    SBC (&03),Y
3649 0C 3C B8 TSB &B83C
364C 08       PHP
364D 3C C0 01 BIT &01C0,X
3650 04 78    TSB &78
3652 F1 02    SBC (&02),Y
3654 27       ???
3655 0A       ASL A
3656 78       SEI
3657 F1 32    SBC (&32),Y
3659 27       ???
365A 04 20    TSB &20
365C F1 48    SBC (&48),Y
365E 0C 3C 78 TSB &783C
3661 08       PHP
3662 3C 80 08 BIT &0880,X
3665 3C 84 08 BIT &0884,X
3668 04 88    TSB &88
366A 08       PHP
366B 48       PHA
366C 68       PLA
366D F2 03    SBC (03)
366F 08       PHP
3670 48       PHA
3671 B0 F2    BCS &3665
3673 03       ???
3674 0C 04 82 TSB &8204
3677 F1 0E    SBC (&0E),Y
3679 0C 48 60 TSB &6048
367C 0C 48 A8 TSB &A848
367F 0C 04 2A TSB &2A04
3682 F1 12    SBC (&12),Y
3684 08       PHP
3685 48       PHA
3686 32 0C    AND (0C)
3688 04 48    TSB &48
368A F2 02    SBC (02)
368C 22       ???
368D 04 F0    TSB &F0
368F F3       ???
3690 00       BRK
3691 44 BC    ??? &BC
3693 FF       ???
3694 00       BRK
3695 14 BA    TRB &BA
3697 00       BRK
3698 1C B2 FF TRB &FFB2
369B 1B       ???
369C 55 03    EOR 03,X
369E 70 FF    BVS &369F
36A0 32 09    AND (09)
36A2 36 3F    ROL 3F,X
36A4 B5 FF    LDA FF,X
36A6 33       ???
36A7 19 21 30 ORA &3021,Y
36AA CD 01 33 CMP &3301
36AD 2E 01 1A ROL &1A01
36B0 E5 FF    SBC &FF
36B2 33       ???
36B3 FF       ???
36B4 C4 26    CPY &26           ; &26C4
36B6 D4 26    ??? &26           ; &26D4  ;
36B8 E4 26    CPX &26           ; &26E4  ; Some sort of palette look-up
36BA F4 26    ??? &26           ; &26F4
36BC F8       SED
36BD 26 FC    ROL &FC
36BF 26 00    ROL &00
36C1 27       ???
36C2 04 27    TSB &27
36C4 00       BRK               ; Palette 1 (16 bytes)
36C5 01 02    ORA (&02,X)
36C7 03       ???
36C8 15 40    ORA 40,X
36CA 17       ???
36CB 42       ???
36CC 2A       ROL A
36CD 2B       ???
36CE 80 81    BRA &3651
36D0 3F       ???
36D1 6A       ROR A
36D2 95 C0    STA C0,X
36D4 00       BRK               ; Palette 2 (16 bytes)
36D5 10 20    BPL &36F7
36D7 30 04    BMI &36DD
36D9 40       RTI
36DA 24 60    BIT &60
36DC 08       PHP
36DD 18       CLC
36DE 80 90    BRA &3670
36E0 0C 48 84 TSB &8448
36E3 C0       ???
36E4 00       BRK               ; Palette 3 (16 bytes)
36E5 01 02    ORA (&02,X)
36E7 03       ???
36E8 05 40    ORA &40
36EA 07       ???
36EB 42       ???
36EC 0A       ASL A
36ED 0B       ???
36EE 80 81    BRA &3671
36F0 0F       ???
36F1 4A       LSR A
36F2 85 C0    STA &C0
36F4 00       BRK               ; Palette 4 (16 bytes)
36F5 41 82    EOR (&82,X)
36F7 C3       ???
36F8 00       BRK
36F9 51 A2    EOR (&A2),Y
36FB F3       ???
36FC 00       BRK
36FD 54 A8    ??? &A8
36FF FC 00 55 ??? &5500
3702 AA       TAX
3703 FF       ???
3704 00       BRK
3705 54 A8    ??? &A8
3707 FC 55 40 ??? &4055
370A FD E8 AA SBC &AAE8,X
370D FE 80 D4 INC &D480,X
3710 FF       ???
3711 EA       NOP
3712 D5 C0    CMP C0,X          ; End palette
3714 3E 27 3E ROL &3E27,X
3717 27       ???
3718 3E 27 2C ROL &2C27,X
371B 27       ???
371C 3F       ???
371D 27       ???
371E 3E 27 3E ROL &3E27,X
3721 27       ???
3722 52 27    EOR (27)
3724 77       ???
3725 27       ???
3726 7E 27 8B ROR &8B27,X
3729 27       ???
372A 9B       ???
372B 26 2D    ROL &2D
372D 01 0A    ORA (&0A,X)
372F 75 01    ADC 01,X
3731 33       ???
3732 47       ???
3733 6E 03 3C ROR &3C03
3736 01 31    ORA (&31,X)
3738 48       PHA
3739 A0 00    LDY #&00
373B 98       TYA
373C FF       ???
373D 32 FF    AND (FF)
373F 07       ???
3740 1E 03 DC ASL &DC03,X
3743 01 31    ORA (&31,X)
3745 0A       ASL A
3746 19 1B 8C ORA &8C1B,Y
3749 01 31    ORA (&31,X)
374B 0A       ASL A
374C 19 3F 8C ORA &8C3F,Y
374F 01 31    ORA (&31,X)
3751 FF       ???
3752 1A       INC A
3753 01 0C    ORA (&0C,X)
3755 5D 01 33 EOR &3301,X
3758 1A       INC A
3759 01 25    ORA (&25,X)
375B 5D FF 33 EOR &33FF,X
375E 1A       INC A
375F 01 25    ORA (&25,X)
3761 A5 01    LDA &01
3763 33       ???
3764 1A       INC A
3765 01 0C    ORA (&0C,X)
3767 A5 FF    LDA &FF
3769 33       ???
376A 1D 01 05 ORA &0501,X
376D ED 01 33 SBC &3301
3770 1D 01 23 ORA &2301,X
3773 ED FF 33 SBC &33FF
3776 FF       ???
3777 33       ???
3778 01 0E    ORA (&0E,X)
377A DD 01 33 CMP &3301,X
377D FF       ???
377E 0E 19 0B ASL &0B19
3781 62       ???
3782 01 31    ORA (&31,X)
3784 0E 19 32 ASL &3219
3787 62       ???
3788 FF       ???
3789 32 FF    AND (FF)
378B 29 01    AND #&01
378D 0A       ASL A
378E ED 01 33 SBC &3301
3791 12 38    ORA (38)
3793 1B       ???
3794 74 01    STZ 01,X
3796 31 FF    AND (&FF),Y
3798 02       ???
3799 4C 20 F2 JMP &F220
379C 23       ???
379D 02       ???
379E 00       BRK
379F 20 F2 23 JSR &23F2
37A2 02       ???
37A3 18       CLC
37A4 84 F2    STY &F2
37A6 12 2D    ORA (2D)
37A8 1C 34 0D TRB &0D34
37AB 1C 48 F2 TRB &F248
37AE 04 0D    TSB &0D
37B0 20 48 F2 JSR &F248
37B3 04 2D    TSB &2D
37B5 20 34 2F JSR &2F34
37B8 20 68 28 JSR &2868
37BB 20 7C 2D JSR &2D7C
37BE 24 34    BIT &34
37C0 0D 24 48 ORA &4824
37C3 F2 07    SBC (07)
37C5 28       PLP
37C6 28       PLP
37C7 34 F2    BIT F2,X
37C9 03       ???
37CA 2D 28 4C AND &4C28
37CD 0D 28 60 ORA &6028
37D0 F2 04    SBC (04)
37D2 2D 2C 34 AND &342C
37D5 0D 2C 48 ORA &482C
37D8 F2 07    SBC (07)
37DA 0D 30 48 ORA &4830
37DD F2 04    SBC (04)
37DF 2D 30 34 AND &3430
37E2 2F       ???
37E3 30 68    BMI &384D
37E5 28       PLP
37E6 30 7C    BMI &3864
37E8 0D 34 48 ORA &4834
37EB F2 07    SBC (07)
37ED 2D 34 34 AND &3434
37F0 27       ???
37F1 40       RTI
37F2 B8       CLV
37F3 F1 0C    SBC (&0C),Y
37F5 27       ???
37F6 30 D0    BMI &37C8
37F8 F1 1C    SBC (&1C),Y
37FA 27       ???
37FB 1C E8 F1 TRB &F1E8
37FE 30 24    BMI &3824
3800 14 80    TRB &80
3802 F1 0E    SBC (&0E),Y
3804 25 40    AND &40
3806 80 F1    BRA &37F9
3808 02       ???
3809 24 00    BIT &00
380B F0 F1    BEQ &37FE
380D 14 0B    TRB &0B
380F 04 80    TSB &80
3811 0A       ASL A
3812 04 88    TSB &88
3814 F2 08    SBC (08)
3816 28       PLP
3817 14 B2    TRB &B2
3819 28       PLP
381A 1C AA F3 TRB &F3AA
381D 61 4D    ADC (&4D,X)
381F 02       ???
3820 61 4D    ADC (&4D,X)
3822 02       ???
3823 61 4D    ADC (&4D,X)
3825 02       ???
3826 61 4D    ADC (&4D,X)
3828 03       ???
3829 59 45 05 EOR &0545,Y
382C 59 45 05 EOR &0545,Y
382F 4D 39 05 EOR &0539
3832 4D 39 05 EOR &0539
3835 59 45 05 EOR &0545,Y
3838 FF       ???
3839 75 35    ADC 35,X
383B 04 6D    TSB &6D
383D 31 04    AND (&04),Y
383F 65 29    ADC &29
3841 04 61    TSB &61
3843 21 09    AND (&09,X)
3845 FF       ???
3846 00       BRK
3847 00       BRK
3848 00       BRK
3849 00       BRK
384A 00       BRK
384B 27       ???               ; Tile data, 5 bytes each.  First 2 point to tile data
384C 32       ???               ; i.e. &3227 -> 3227 .. 3243 (28 bytes?)
384D 03       ???               ; ?
384E 0A       ASL A             ; ?
384F 00       BRK               ; palette/pixel entry?
3850 45 32    EOR &32
3852 04 06    TSB &06
3854 02       ???
3855 45 32    EOR &32
3857 04 06    TSB &06
3859 08       PHP
385A 45 32    EOR &32
385C 04 06    TSB &06
385E 0A       ASL A
385F 45 32    EOR &32
3861 04 06    TSB &06
3863 0C 45 32 TSB &3245
3866 04 06    TSB &06
3868 02       ???
3869 5D 32 04 EOR &0432,X       ; &325D
386C 02       ???
386D 00       BRK
386E 69 32    ADC #&32
3870 04 08    TSB &08
3872 00       BRK
3873 69 32    ADC #&32
3875 04 08    TSB &08
3877 00       BRK
3878 86 36    STX &36
387A 04 08    TSB &08
387C 01 86    ORA (&86,X)
387E 36 04    ROL 04,X
3880 08       PHP
3881 01 A6    ORA (&A6,X)
3883 36 04    ROL 04,X
3885 08       PHP
3886 01 47    ORA (&47,X)
3888 31 04    AND (&04),Y
388A 08       PHP
388B 00       BRK
388C 47       ???
388D 31 04    AND (&04),Y
388F 08       PHP
3890 00       BRK
3891 89 32    BIT #&32
3893 02       ???
3894 18       CLC
3895 00       BRK
3896 D1 32    CMP (&32),Y
3898 08       PHP
3899 1A       INC A
389A 02       ???
389B A1 33    LDA (&33,X)
389D 03       ???
389E 10 04    BPL &38A4
38A0 11 34    ORA (&34),Y
38A2 03       ???
38A3 10 00    BPL &38A5
38A5 F1 33    SBC (&33),Y
38A7 02       ???
38A8 10 00    BPL &38AA
38AA 41 34    EOR (&34,X)
38AC 02       ???
38AD 07       ???
38AE 00       BRK
38AF 4F       ???
38B0 34 02    BIT 02,X
38B2 07       ???
38B3 00       BRK
38B4 5D 34 02 EOR &0234,X
38B7 07       ???
38B8 00       BRK
38B9 6B       ???
38BA 34 02    BIT 02,X
38BC 07       ???
38BD 00       BRK
38BE 79 34 02 ADC &0234,Y
38C1 07       ???
38C2 00       BRK
38C3 87       ???
38C4 34 02    BIT 02,X
38C6 07       ???
38C7 00       BRK
38C8 95 34    STA 34,X
38CA 02       ???
38CB 07       ???
38CC 00       BRK
38CD A3       ???
38CE 34 02    BIT 02,X
38D0 07       ???
38D1 00       BRK
38D2 B1 34    LDA (&34),Y
38D4 02       ???
38D5 07       ???
38D6 00       BRK
38D7 BF       ???
38D8 34 02    BIT 02,X
38DA 07       ???
38DB 00       BRK
38DC CD 34 04 CMP &0434
38DF 08       PHP
38E0 00       BRK
38E1 ED 34 08 SBC &0834
38E4 0C 00 27 TSB &2700
38E7 32 0A    AND (0A)
38E9 18       CLC
38EA 01 D9    ORA (&D9,X)
38EC 34 09    BIT 09,X
38EE 07       ???
38EF 01 7C    ORA (&7C,X)
38F1 35 05    AND 05,X
38F3 0A       ASL A
38F4 07       ???
38F5 7C 35 05 JMP (&0535,X)
38F8 0A       ASL A
38F9 01 C6    ORA (&C6,X)
38FB 35 04    AND 04,X
38FD 0A       ASL A
38FE 01 C6    ORA (&C6,X)
3900 35 04    AND 04,X
3902 0A       ASL A
3903 09 C6    ORA #&C6
3905 35 04    AND 04,X
3907 0A       ASL A
3908 0B       ???
3909 C6 36    DEC &36
390B 01 0A    ORA (&0A,X)
390D 03       ???
390E EE 35 04 INC &0435
3911 08       PHP
3912 03       ???
3913 EE 35 04 INC &0435
3916 08       PHP
3917 09 EE    ORA #&EE
3919 35 04    AND 04,X
391B 08       PHP
391C 0B       ???
391D EE 35 04 INC &0435
3920 08       PHP
3921 0D EE 35 ORA &35EE
3924 04 08    TSB &08
3926 03       ???
3927 0E 36 03 ASL &0336
392A 14 01    TRB &01
392C 0E 36 03 ASL &0336
392F 14 0F    TRB &0F
3931 4A       LSR A
3932 36 03    ROL 03,X
3934 14 01    TRB &01
3936 67       ???
3937 31 08    AND (&08),Y
3939 18       CLC
393A 00       BRK
393B D0 36    BNE &3973
393D 02       ???
393E 09 05    ORA #&05
3940 36 36    ROL 36,X
3942 02       ???
3943 09 04    ORA #&04
3945 2D 36 03 AND &0336
3948 03       ???
3949 04 17    TSB &17
394B 33       ???
394C 09 32    ORA #&32
394E 01 17    ORA (&17,X)
3950 33       ???
3951 06 32    ASL &32
3953 01 7B    ORA (&7B,X)
3955 33       ???
3956 07       ???
3957 32 01    AND (01)
3959 4D 35 09 EOR &0935
395C 14 00    TRB &00
395E 18       CLC
395F 35 02    AND 02,X
3961 32 01    AND (01)
3963 01 36    ORA (&36,X)
3965 02       ???
3966 16 00    ASL 00,X
3968 AE 35 03 LDX &0335
396B 08       PHP
396C 01 C0    ORA (&C0,X)
396E C0 C0    CPY #&C0
3970 C0 C0    CPY #&C0
3972 C0 C0    CPY #&C0
3974 C0 C0    CPY #&C0
3976 33       ???
3977 22       ???
3978 11 C0    ORA (&C0),Y
397A C0 C0    CPY #&C0
397C C0 C0    CPY #&C0
397E C0 C0    CPY #&C0
3980 C0 C0    CPY #&C0
3982 C0 C0    CPY #&C0
3984 C0 C0    CPY #&C0
3986 33       ???
3987 C0 C0    CPY #&C0
3989 C0 C0    CPY #&C0
398B C0 C0    CPY #&C0
398D C0 C0    CPY #&C0
398F C0 C0    CPY #&C0
3991 33       ???
3992 33       ???
3993 C0 C0    CPY #&C0
3995 C0 C0    CPY #&C0
3997 C0 81    CPY #&81
3999 03       ???
399A 03       ???
399B 03       ???
399C 03       ???
399D 03       ???
399E 03       ???
399F 33       ???
39A0 33       ???
39A1 85 0F    STA &0F
39A3 0F       ???
39A4 91 90    STA (&90),Y
39A6 33       ???
39A7 80 91    BRA &393A
39A9 80 C0    BRA &396B
39AB 33       ???
39AC 33       ???
39AD 91 91    STA (&91),Y
39AF 91 81    STA (&81),Y
39B1 03       ???
39B2 03       ???
39B3 42       ???
39B4 C0 C0    CPY #&C0
39B6 C0 C0    CPY #&C0
39B8 C0 C0    CPY #&C0
39BA C0 0F    CPY #&0F
39BC 0F       ???
39BD 0F       ???
39BE 27       ???
39BF 33       ???
39C0 33       ???
39C1 11 22    ORA (&22),Y
39C3 11 22    ORA (&22),Y
39C5 33       ???
39C6 33       ???
39C7 33       ???
39C8 33       ???
39C9 33       ???
39CA 03       ???
39CB 03       ???
39CC 03       ???
39CD 03       ???
39CE 03       ???
39CF 03       ???
39D0 03       ???
39D1 03       ???
39D2 03       ???
39D3 33       ???
39D4 33       ???
39D5 C0 4A    CPY #&4A
39D7 4A       LSR A
39D8 4A       LSR A
39D9 4A       LSR A
39DA 4A       LSR A
39DB C0 C0    CPY #&C0
39DD 62       ???
39DE 33       ???
39DF 11 33    ORA (&33),Y
39E1 62       ???
39E2 C0 C0    CPY #&C0
39E4 C0 C0    CPY #&C0
39E6 C0 C0    CPY #&C0
39E8 C0 C0    CPY #&C0
39EA C0 C0    CPY #&C0
39EC C0 C0    CPY #&C0
39EE 62       ???
39EF C0 C0    CPY #&C0
39F1 C0 C0    CPY #&C0
39F3 C0 C0    CPY #&C0
39F5 C0 C0    CPY #&C0
39F7 C0 C0    CPY #&C0
39F9 C0 C0    CPY #&C0
39FB C0 C0    CPY #&C0
39FD C0 C0    CPY #&C0
39FF C0 C0    CPY #&C0
3A01 C0 C0    CPY #&C0
3A03 81 81    STA (&81,X)
3A05 81 81    STA (&81,X)
3A07 91 33    STA (&33),Y
3A09 85 0F    STA &0F
3A0B 0F       ???
3A0C 91 90    STA (&90),Y
3A0E 33       ???
3A0F 91 C0    STA (&C0),Y
3A11 91 91    STA (&91),Y
3A13 80 33    BRA &3A48
3A15 22       ???
3A16 91 91    STA (&91),Y
3A18 81 81    STA (&81,X)
3A1A 81 03    STA (&03,X)
3A1C 03       ???
3A1D 03       ???
3A1E 42       ???
3A1F 42       ???
3A20 42       ???
3A21 62       ???
3A22 62       ???
3A23 0F       ???
3A24 0F       ???
3A25 0F       ???
3A26 27       ???
3A27 33       ???
3A28 33       ???
3A29 33       ???
3A2A 33       ???
3A2B 33       ???
3A2C 22       ???
3A2D 33       ???
3A2E 00       BRK
3A2F 33       ???
3A30 00       BRK
3A31 33       ???
3A32 03       ???
3A33 03       ???
3A34 03       ???
3A35 03       ???
3A36 81 C0    STA (&C0,X)
3A38 C0 C0    CPY #&C0
3A3A C0 C0    CPY #&C0
3A3C C0 C0    CPY #&C0
3A3E 4A       LSR A
3A3F 4A       LSR A
3A40 4A       LSR A
3A41 4A       LSR A
3A42 4A       LSR A
3A43 C0 C0    CPY #&C0
3A45 62       ???
3A46 33       ???
3A47 11 33    ORA (&33),Y
3A49 33       ???
3A4A C0 C0    CPY #&C0
3A4C C0 C0    CPY #&C0
3A4E C0 42    CPY #&42
3A50 03       ???
3A51 03       ???
3A52 81 C0    STA (&C0,X)
3A54 C0 91    CPY #&91
3A56 C0 C0    CPY #&C0
3A58 C0 C0    CPY #&C0
3A5A C0 C0    CPY #&C0
3A5C C0 C0    CPY #&C0
3A5E C0 C0    CPY #&C0
3A60 C0 62    CPY #&62
3A62 62       ???
3A63 C0 C0    CPY #&C0
3A65 C0 C0    CPY #&C0
3A67 C0 C0    CPY #&C0
3A69 C0 C0    CPY #&C0
3A6B 42       ???
3A6C 13       ???
3A6D 13       ???
3A6E 62       ???
3A6F C0 C0    CPY #&C0
3A71 C0 C0    CPY #&C0
3A73 C0 C0    CPY #&C0
3A75 C0 C0    CPY #&C0
3A77 C0 C0    CPY #&C0
3A79 62       ???
3A7A 33       ???
3A7B 91 C0    STA (&C0),Y
3A7D C0 C0    CPY #&C0
3A7F C0 C0    CPY #&C0
3A81 C0 C0    CPY #&C0
3A83 C0 C0    CPY #&C0
3A85 C0 C0    CPY #&C0
3A87 C0 C0    CPY #&C0
3A89 C0 C0    CPY #&C0
3A8B 85 0F    STA &0F
3A8D 0F       ???
3A8E 91 90    STA (&90),Y
3A90 33       ???
3A91 91 C0    STA (&C0),Y
3A93 91 80    STA (&80),Y
3A95 33       ???
3A96 33       ???
3A97 80 91    BRA &3A2A
3A99 91 81    STA (&81),Y
3A9B 81 C0    STA (&C0,X)
3A9D C0 C0    CPY #&C0
3A9F C0 C0    CPY #&C0
3AA1 C0 C0    CPY #&C0
3AA3 C0 91    CPY #&91
3AA5 0F       ???
3AA6 0F       ???
3AA7 0F       ???
3AA8 27       ???
3AA9 33       ???
3AAA 33       ???
3AAB 33       ???
3AAC 33       ???
3AAD 33       ???
3AAE 33       ???
3AAF 33       ???
3AB0 11 33    ORA (&33),Y
3AB2 33       ???
3AB3 33       ???
3AB4 03       ???
3AB5 03       ???
3AB6 03       ???
3AB7 03       ???
3AB8 03       ???
3AB9 03       ???
3ABA 03       ???
3ABB 03       ???
3ABC 03       ???
3ABD 33       ???
3ABE 33       ???
3ABF C0 4A    CPY #&4A
3AC1 4A       LSR A
3AC2 4A       LSR A
3AC3 4A       LSR A
3AC4 4A       LSR A
3AC5 C0 C0    CPY #&C0
3AC7 C0 C0    CPY #&C0
3AC9 C0 C0    CPY #&C0
3ACB C0 C0    CPY #&C0
3ACD C0 C0    CPY #&C0
3ACF C0 C0    CPY #&C0
3AD1 C0 C0    CPY #&C0
3AD3 C0 C0    CPY #&C0
3AD5 C0 C0    CPY #&C0
3AD7 C0 C0    CPY #&C0
3AD9 C0 C0    CPY #&C0
3ADB C0 C0    CPY #&C0
3ADD C0 C0    CPY #&C0
3ADF C0 C0    CPY #&C0
3AE1 C0 C0    CPY #&C0
3AE3 C0 C0    CPY #&C0
3AE5 C0 C0    CPY #&C0
3AE7 C0 C0    CPY #&C0
3AE9 C0 C0    CPY #&C0
3AEB C0 C0    CPY #&C0
3AED C0 C0    CPY #&C0
3AEF C0 C0    CPY #&C0
3AF1 C0 C0    CPY #&C0
3AF3 C0 C0    CPY #&C0
3AF5 C0 C0    CPY #&C0
3AF7 C0 62    CPY #&62
3AF9 62       ???
3AFA 40       RTI
3AFB 62       ???
3AFC 33       ???
3AFD 33       ???
3AFE 62       ???
3AFF C0 C0    CPY #&C0
3B01 C0 C0    CPY #&C0
3B03 C0 C0    CPY #&C0
3B05 C0 C0    CPY #&C0
3B07 C0 C0    CPY #&C0
3B09 C0 C0    CPY #&C0
3B0B C0 91    CPY #&91
3B0D C0 85    CPY #&85
3B0F 0F       ???
3B10 0F       ???
3B11 0F       ???
3B12 0F       ???
3B13 85 91    STA &91
3B15 33       ???
3B16 33       ???
3B17 33       ???
3B18 33       ???
3B19 33       ???
3B1A 33       ???
3B1B 03       ???
3B1C 03       ???
3B1D 03       ???
3B1E 03       ???
3B1F 03       ???
3B20 03       ???
3B21 03       ???
3B22 03       ???
3B23 03       ???
3B24 03       ???
3B25 33       ???
3B26 33       ???
3B27 C0 4A    CPY #&4A
3B29 0F       ???
3B2A 0F       ???
3B2B 0F       ???
3B2C 0F       ???
3B2D 4A       LSR A
3B2E 62       ???
3B2F 33       ???
3B30 33       ???
3B31 33       ???
3B32 33       ???
3B33 33       ???
3B34 33       ???
3B35 03       ???
3B36 03       ???
3B37 03       ???
3B38 81 81    STA (&81,X)
3B3A 81 91    STA (&91,X)
3B3C 91 C0    STA (&C0),Y
3B3E C0 C0    CPY #&C0
3B40 C0 91    CPY #&91
3B42 91 80    STA (&80),Y
3B44 91 91    STA (&91),Y
3B46 91 91    STA (&91),Y
3B48 33       ???
3B49 33       ???
3B4A 62       ???
3B4B C0 C0    CPY #&C0
3B4D C0 C0    CPY #&C0
3B4F C0 42    CPY #&42
3B51 42       ???
3B52 42       ???
3B53 42       ???
3B54 42       ???
3B55 62       ???
3B56 33       ???
3B57 C0 C0    CPY #&C0
3B59 C0 C0    CPY #&C0
3B5B 62       ???
3B5C 62       ???
3B5D 40       RTI
3B5E 62       ???
3B5F 62       ???
3B60 62       ???
3B61 62       ???
3B62 33       ???
3B63 33       ???
3B64 91 C0    STA (&C0),Y
3B66 C0 C0    CPY #&C0
3B68 C0 C0    CPY #&C0
3B6A C0 C0    CPY #&C0
3B6C C0 C0    CPY #&C0
3B6E C0 C0    CPY #&C0
3B70 C0 C0    CPY #&C0
3B72 C0 C0    CPY #&C0
3B74 91 C0    STA (&C0),Y
3B76 85 0F    STA &0F
3B78 0F       ???
3B79 0F       ???
3B7A 0F       ???
3B7B 85 91    STA &91
3B7D 33       ???
3B7E 33       ???
3B7F 33       ???
3B80 33       ???
3B81 33       ???
3B82 33       ???
3B83 03       ???
3B84 03       ???
3B85 03       ???
3B86 03       ???
3B87 03       ???
3B88 03       ???
3B89 03       ???
3B8A 03       ???
3B8B 03       ???
3B8C 03       ???
3B8D 33       ???
3B8E 33       ???
3B8F C0 4A    CPY #&4A
3B91 0F       ???
3B92 0F       ???
3B93 0F       ???
3B94 0F       ???
3B95 4A       LSR A
3B96 62       ???
3B97 33       ???
3B98 33       ???
3B99 33       ???
3B9A 33       ???
3B9B 33       ???
3B9C 33       ???
3B9D 03       ???
3B9E 03       ???
3B9F 03       ???
3BA0 81 81    STA (&81,X)
3BA2 81 81    STA (&81,X)
3BA4 81 81    STA (&81,X)
3BA6 81 91    STA (&91,X)
3BA8 91 91    STA (&91),Y
3BAA 91 80    STA (&80),Y
3BAC 91 91    STA (&91),Y
3BAE 91 91    STA (&91),Y
3BB0 33       ???
3BB1 33       ???
3BB2 62       ???
3BB3 C0 C0    CPY #&C0
3BB5 C0 C0    CPY #&C0
3BB7 C0 42    CPY #&42
3BB9 42       ???
3BBA 42       ???
3BBB 42       ???
3BBC 42       ???
3BBD 42       ???
3BBE 42       ???
3BBF 42       ???
3BC0 42       ???
3BC1 62       ???
3BC2 33       ???
3BC3 C0 C0    CPY #&C0
3BC5 C0 C0    CPY #&C0
3BC7 C0 C0    CPY #&C0
3BC9 C0 C0    CPY #&C0
3BCB C0 33    CPY #&33
3BCD 22       ???
3BCE 11 C0    ORA (&C0),Y
3BD0 C0 C0    CPY #&C0
3BD2 C0 C0    CPY #&C0
3BD4 C0 C0    CPY #&C0
3BD6 C0 C0    CPY #&C0
3BD8 C0 C0    CPY #&C0
3BDA C0 C0    CPY #&C0
3BDC C0 C0    CPY #&C0
3BDE 85 85    STA &85
3BE0 C0 C0    CPY #&C0
3BE2 91 C0    STA (&C0),Y
3BE4 C0 C0    CPY #&C0
3BE6 C0 33    CPY #&33
3BE8 33       ???
3BE9 C0 C0    CPY #&C0
3BEB C0 C0    CPY #&C0
3BED C0 C0    CPY #&C0
3BEF C0 C0    CPY #&C0
3BF1 C0 C0    CPY #&C0
3BF3 C0 C0    CPY #&C0
3BF5 C0 C0    CPY #&C0
3BF7 0F       ???
3BF8 0F       ???
3BF9 0F       ???
3BFA 33       ???
3BFB 31 33    AND (&33),Y
3BFD 33       ???
3BFE 33       ???
3BFF 91 91    STA (&91),Y
3C01 33       ???
3C02 33       ???
3C03 80 91    BRA &3B96
3C05 91 81    STA (&81),Y
3C07 81 81    STA (&81,X)
3C09 81 81    STA (&81,X)
3C0B 81 81    STA (&81,X)
3C0D 81 81    STA (&81,X)
3C0F 91 33    STA (&33),Y
3C11 4A       LSR A
3C12 0F       ???
3C13 0F       ???
3C14 0F       ???
3C15 27       ???
3C16 27       ???
3C17 62       ???
3C18 62       ???
3C19 62       ???
3C1A 33       ???
3C1B 33       ???
3C1C 22       ???
3C1D 11 33    ORA (&33),Y
3C1F 33       ???
3C20 03       ???
3C21 03       ???
3C22 03       ???
3C23 03       ???
3C24 42       ???
3C25 42       ???
3C26 42       ???
3C27 42       ???
3C28 42       ???
3C29 62       ???
3C2A 62       ???
3C2B C0 C0    CPY #&C0
3C2D C0 C0    CPY #&C0
3C2F C0 C0    CPY #&C0
3C31 C0 C0    CPY #&C0
3C33 C0 C0    CPY #&C0
3C35 C0 C0    CPY #&C0
3C37 C0 C0    CPY #&C0
3C39 C0 C0    CPY #&C0
3C3B C0 42    CPY #&42
3C3D 03       ???
3C3E 03       ???
3C3F 81 81    STA (&81,X)
3C41 C0 C0    CPY #&C0
3C43 C0 91    CPY #&91
3C45 C0 C0    CPY #&C0
3C47 C0 C0    CPY #&C0
3C49 C0 C0    CPY #&C0
3C4B C0 C0    CPY #&C0
3C4D C0 C0    CPY #&C0
3C4F C0 C0    CPY #&C0
3C51 C0 C0    CPY #&C0
3C53 C0 C0    CPY #&C0
3C55 C0 C0    CPY #&C0
3C57 C0 C0    CPY #&C0
3C59 42       ???
3C5A 42       ???
3C5B 03       ???
3C5C 03       ???
3C5D 33       ???
3C5E 62       ???
3C5F 85 0F    STA &0F
3C61 0F       ???
3C62 1B       ???
3C63 1A       INC A
3C64 4A       LSR A
3C65 4A       LSR A
3C66 0F       ???
3C67 33       ???
3C68 33       ???
3C69 33       ???
3C6A 62       ???
3C6B C0 91    CPY #&91
3C6D 33       ???
3C6E 22       ???
3C6F 11 33    ORA (&33),Y
3C71 33       ???
3C72 33       ???
3C73 11 33    ORA (&33),Y
3C75 22       ???
3C76 91 C0    STA (&C0),Y
3C78 62       ???
3C79 62       ???
3C7A 01 23    ORA (&23,X)
3C7C 23       ???
3C7D C0 C0    CPY #&C0
3C7F C0 03    CPY #&03
3C81 03       ???
3C82 03       ???
3C83 C0 C0    CPY #&C0
3C85 03       ???
3C86 03       ???
3C87 03       ???
3C88 C0 C0    CPY #&C0
3C8A C0 13    CPY #&13
3C8C 13       ???
3C8D 13       ???
3C8E 91 C0    STA (&C0),Y
3C90 C0 C0    CPY #&C0
3C92 C0 C0    CPY #&C0
3C94 C0 62    CPY #&62
3C96 62       ???
3C97 33       ???
3C98 91 91    STA (&91),Y
3C9A C0 C0    CPY #&C0
3C9C C0 C0    CPY #&C0
3C9E C0 C0    CPY #&C0
3CA0 C0 C0    CPY #&C0
3CA2 C0 C0    CPY #&C0
3CA4 C0 C0    CPY #&C0
3CA6 C0 03    CPY #&03
3CA8 03       ???
3CA9 03       ???
3CAA C0 C0    CPY #&C0
3CAC C0 C0    CPY #&C0
3CAE 91 C0    STA (&C0),Y
3CB0 C0 C0    CPY #&C0
3CB2 C0 C0    CPY #&C0
3CB4 C0 C0    CPY #&C0
3CB6 C0 03    CPY #&03
3CB8 03       ???
3CB9 03       ???
3CBA C0 C0    CPY #&C0
3CBC 91 33    STA (&33),Y
3CBE 62       ???
3CBF C0 C0    CPY #&C0
3CC1 C0 C0    CPY #&C0
3CC3 C0 C0    CPY #&C0
3CC5 C0 C0    CPY #&C0
3CC7 03       ???
3CC8 03       ???
3CC9 03       ???
3CCA C0 C0    CPY #&C0
3CCC 03       ???
3CCD 03       ???
3CCE 03       ???
3CCF C0 C0    CPY #&C0
3CD1 C0 C0    CPY #&C0
3CD3 C0 C0    CPY #&C0
3CD5 C0 C0    CPY #&C0
3CD7 03       ???
3CD8 23       ???
3CD9 33       ???
3CDA 13       ???
3CDB 03       ???
3CDC 03       ???
3CDD 03       ???
3CDE 03       ???
3CDF C0 85    CPY #&85
3CE1 85 C0    STA &C0
3CE3 C0 91    CPY #&91
3CE5 C0 C0    CPY #&C0
3CE7 33       ???
3CE8 33       ???
3CE9 11 22    ORA (&22),Y
3CEB 33       ???
3CEC C0 C0    CPY #&C0
3CEE C0 0F    CPY #&0F
3CF0 0F       ???
3CF1 0F       ???
3CF2 33       ???
3CF3 31 33    AND (&33),Y
3CF5 33       ???
3CF6 91 33    STA (&33),Y
3CF8 33       ???
3CF9 11 33    ORA (&33),Y
3CFB 62       ???
3CFC C0 C0    CPY #&C0
3CFE C0 4A    CPY #&4A
3D00 0F       ???
3D01 0F       ???
3D02 0F       ???
3D03 27       ???
3D04 62       ???
3D05 62       ???
3D06 62       ???
3D07 62       ???
3D08 62       ???
3D09 C0 C0    CPY #&C0
3D0B C0 C0    CPY #&C0
3D0D C0 C0    CPY #&C0
3D0F C0 C0    CPY #&C0
3D11 C0 C0    CPY #&C0
3D13 C0 C0    CPY #&C0
3D15 C0 C0    CPY #&C0
3D17 C0 C0    CPY #&C0
3D19 C0 C0    CPY #&C0
3D1B C0 C0    CPY #&C0
3D1D C0 C0    CPY #&C0
3D1F 81 03    STA (&03,X)
3D21 03       ???
3D22 03       ???
3D23 81 C0    STA (&C0,X)
3D25 C0 91    CPY #&91
3D27 C0 C0    CPY #&C0
3D29 85 0F    STA &0F
3D2B 0F       ???
3D2C 91 90    STA (&90),Y
3D2E 33       ???
3D2F 91 C0    STA (&C0),Y
3D31 91 91    STA (&91),Y
3D33 80 33    BRA &3D68
3D35 22       ???
3D36 91 91    STA (&91),Y
3D38 81 03    STA (&03,X)
3D3A 03       ???
3D3B C0 42    CPY #&42
3D3D 13       ???
3D3E 13       ???
3D3F 62       ???
3D40 C0 C0    CPY #&C0
3D42 C0 0F    CPY #&0F
3D44 0F       ???
3D45 0F       ???
3D46 27       ???
3D47 33       ???
3D48 33       ???
3D49 33       ???
3D4A 33       ???
3D4B 33       ???
3D4C 22       ???
3D4D 33       ???
3D4E 00       BRK
3D4F 33       ???
3D50 00       BRK
3D51 33       ???
3D52 03       ???
3D53 03       ???
3D54 03       ???
3D55 03       ???
3D56 81 C0    STA (&C0,X)
3D58 C0 C0    CPY #&C0
3D5A C0 C0    CPY #&C0
3D5C C0 C0    CPY #&C0
3D5E 4A       LSR A
3D5F 4A       LSR A
3D60 4A       LSR A
3D61 4A       LSR A
3D62 4A       LSR A
3D63 C0 C0    CPY #&C0
3D65 62       ???
3D66 33       ???
3D67 11 33    ORA (&33),Y
3D69 33       ???
3D6A C0 C0    CPY #&C0
3D6C C0 C0    CPY #&C0
3D6E C0 42    CPY #&42
3D70 42       ???
3D71 03       ???
3D72 03       ???
3D73 81 81    STA (&81,X)
3D75 C0 91    CPY #&91
3D77 C0 C0    CPY #&C0
3D79 C0 C0    CPY #&C0
3D7B C0 C0    CPY #&C0
3D7D C0 C0    CPY #&C0
3D7F C0 C0    CPY #&C0
3D81 62       ???
3D82 62       ???
3D83 C0 C0    CPY #&C0
3D85 C0 C0    CPY #&C0
3D87 C0 C0    CPY #&C0
3D89 C0 C0    CPY #&C0
3D8B C0 C0    CPY #&C0
3D8D 42       ???
3D8E 13       ???
3D8F 62       ???
3D90 C0 C0    CPY #&C0
3D92 C0 C0    CPY #&C0
3D94 C0 C0    CPY #&C0
3D96 C0 C0    CPY #&C0
3D98 C0 C0    CPY #&C0
3D9A C0 C0    CPY #&C0
3D9C 62       ???
3D9D 33       ???
3D9E 91 C0    STA (&C0),Y
3DA0 C0 C0    CPY #&C0
3DA2 C0 C0    CPY #&C0
3DA4 C0 C0    CPY #&C0
3DA6 C0 C0    CPY #&C0
3DA8 C0 81    CPY #&81
3DAA 23       ???
3DAB 03       ???
3DAC 03       ???
3DAD C0 C0    CPY #&C0
3DAF C0 C0    CPY #&C0
3DB1 C0 C0    CPY #&C0
3DB3 C0 C0    CPY #&C0
3DB5 81 03    STA (&03,X)
3DB7 42       ???
3DB8 C0 03    CPY #&03
3DBA 03       ???
3DBB C0 C0    CPY #&C0
3DBD C0 C0    CPY #&C0
3DBF C0 C0    CPY #&C0
3DC1 C0 C0    CPY #&C0
3DC3 C0 42    CPY #&42
3DC5 03       ???
3DC6 81 03    STA (&03,X)
3DC8 13       ???
3DC9 C0 C0    CPY #&C0
3DCB C0 C0    CPY #&C0
3DCD C0 C0    CPY #&C0
3DCF C0 C0    CPY #&C0
3DD1 C0 91    CPY #&91
3DD3 22       ???
3DD4 13       ???
3DD5 02       ???
3DD6 33       ???
3DD7 85 0F    STA &0F
3DD9 0F       ???
3DDA 91 90    STA (&90),Y
3DDC 33       ???
3DDD 91 C0    STA (&C0),Y
3DDF 33       ???
3DE0 11 33    ORA (&33),Y
3DE2 33       ???
3DE3 00       BRK
3DE4 33       ???
3DE5 0F       ???
3DE6 0F       ???
3DE7 0F       ???
3DE8 27       ???
3DE9 33       ???
3DEA 33       ???
3DEB 33       ???
3DEC 33       ???
3DED 33       ???
3DEE 33       ???
3DEF 33       ???
3DF0 22       ???
3DF1 11 33    ORA (&33),Y
3DF3 C0 4A    CPY #&4A
3DF5 4A       LSR A
3DF6 4A       LSR A
3DF7 4A       LSR A
3DF8 4A       LSR A
3DF9 C0 C0    CPY #&C0
3DFB C0 62    CPY #&62
3DFD 62       ???
3DFE 62       ???
3DFF 62       ???
3E00 C0 C0    CPY #&C0
3E02 C0 C0    CPY #&C0
3E04 C0 84    CPY #&84
3E06 84 C0    STY &C0
3E08 C0 48    CPY #&48
3E0A 0C 84 80 TSB &8084
3E0D 84 84    STY &84
3E0F 84 C0    STY &C0
3E11 C0 C0    CPY #&C0
3E13 C0 C0    CPY #&C0
3E15 C0 C0    CPY #&C0
3E17 C0 C0    CPY #&C0
3E19 C0 C0    CPY #&C0
3E1B 90 84    BCC &3DA1
3E1D 0C 24 0C TSB &0C24
3E20 0C 06 0C TSB &0C06
3E23 C0 84    CPY #&84
3E25 0C 0C 00 TSB &000C
3E28 0C 0C 1D TSB &1D0C
3E2B 3F       ???
3E2C 3F       ???
3E2D 84 84    STY &84
3E2F 84 84    STY &84
3E31 84 84    STY &84
3E33 84 0C    STY &0C
3E35 30 18    BMI &3E4F
3E37 0C 0C 0C TSB &0C0C
3E3A 0C 08 04 TSB &0408
3E3D 0C 0C 0C TSB &0C0C
3E40 04 0C    TSB &0C
3E42 0C 3F 3F TSB &3F3F
3E45 6A       ROR A
3E46 48       PHA
3E47 48       PHA
3E48 48       PHA
3E49 48       PHA
3E4A 48       PHA
3E4B 48       PHA
3E4C 48       PHA
3E4D 48       PHA
3E4E 48       PHA
3E4F 90 60    BCC &3EB1
3E51 60       RTS
3E52 60       RTS
3E53 60       RTS
3E54 C0 C0    CPY #&C0
3E56 C0 48    CPY #&48
3E58 48       PHA
3E59 48       PHA
3E5A C0 C0    CPY #&C0
3E5C C0 C0    CPY #&C0
3E5E C0 C0    CPY #&C0
3E60 C0 C0    CPY #&C0
3E62 C0 C0    CPY #&C0
3E64 C0 C0    CPY #&C0
3E66 C0 C0    CPY #&C0
3E68 C0 C0    CPY #&C0
3E6A C0 C0    CPY #&C0
3E6C C0 C0    CPY #&C0
3E6E C0 C0    CPY #&C0
3E70 C0 C0    CPY #&C0
3E72 C0 C0    CPY #&C0
3E74 C0 C0    CPY #&C0
3E76 C0 C0    CPY #&C0
3E78 C0 C0    CPY #&C0
3E7A C0 C0    CPY #&C0
3E7C C0 C0    CPY #&C0
3E7E C0 C0    CPY #&C0
3E80 C0 C0    CPY #&C0
3E82 C0 C0    CPY #&C0
3E84 C0 C0    CPY #&C0
3E86 C0 84    CPY #&84
3E88 84 C0    STY &C0
3E8A C0 C0    CPY #&C0
3E8C C0 C0    CPY #&C0
3E8E C0 C0    CPY #&C0
3E90 C0 C0    CPY #&C0
3E92 C0 C0    CPY #&C0
3E94 C0 C0    CPY #&C0
3E96 C0 84    CPY #&84
3E98 84 84    STY &84
3E9A 80 84    BRA &3E20
3E9C 0C 90 84 TSB &8490
3E9F 0C 24 0C TSB &0C24
3EA2 0C 06 0C TSB &0C06
3EA5 80 84    BRA &3E2B
3EA7 08       PHP
3EA8 0C 08 0C TSB &0C08
3EAB 84 95    STY &95
3EAD 95 2E    STA 2E,X
3EAF 0C 0C 0C TSB &0C0C
3EB2 48       PHA
3EB3 48       PHA
3EB4 48       PHA
3EB5 40       RTI
3EB6 48       PHA
3EB7 30 18    BMI &3ED1
3EB9 0C 0C 0C TSB &0C0C
3EBC 0C 48 04 TSB &0448
3EBF 0C 08 0C TSB &0C08
3EC2 00       BRK
3EC3 0C 00 0C TSB &0C00
3EC6 3F       ???
3EC7 3F       ???
3EC8 0C 0C 84 TSB &840C
3ECB C0 C0    CPY #&C0
3ECD C0 C0    CPY #&C0
3ECF C0 C0    CPY #&C0
3ED1 90 60    BCC &3F33
3ED3 60       RTS
3ED4 60       RTS
3ED5 60       RTS
3ED6 C0 C0    CPY #&C0
3ED8 C0 48    CPY #&48
3EDA 0C 04 0C TSB &0C04
3EDD 0C C0 C0 TSB &C0C0
3EE0 C0 C0    CPY #&C0
3EE2 C0 48    CPY #&48
3EE4 0C 0C 84 TSB &840C
3EE7 C0 C0    CPY #&C0
3EE9 84 C0    STY &C0
3EEB C0 C0    CPY #&C0
3EED C0 C0    CPY #&C0
3EEF C0 C0    CPY #&C0
3EF1 C0 C0    CPY #&C0
3EF3 C0 C0    CPY #&C0
3EF5 48       PHA
3EF6 48       PHA
3EF7 C0 C0    CPY #&C0
3EF9 C0 C0    CPY #&C0
3EFB C0 C0    CPY #&C0
3EFD C0 C0    CPY #&C0
3EFF 48       PHA
3F00 08       PHP
3F01 04 48    TSB &48
3F03 C0 C0    CPY #&C0
3F05 C0 C0    CPY #&C0
3F07 C0 C0    CPY #&C0
3F09 C0 48    CPY #&48
3F0B 48       PHA
3F0C 40       RTI
3F0D 48       PHA
3F0E 0C 0C 48 TSB &480C
3F11 C0 C0    CPY #&C0
3F13 C0 C0    CPY #&C0
3F15 C0 C0    CPY #&C0
3F17 C0 C0    CPY #&C0
3F19 C0 C0    CPY #&C0
3F1B C0 C0    CPY #&C0
3F1D C0 84    CPY #&84
3F1F C0 90    CPY #&90
3F21 30 20    BMI &3F43
3F23 30 30    BMI &3F55
3F25 90 84    BCC &3EAB
3F27 0C 0C 0C TSB &0C0C
3F2A 0C 0C 0C TSB &0C0C
3F2D 3F       ???
3F2E 1D 0C 0C ORA &0C0C,X
3F31 0C 0C 0C TSB &0C0C
3F34 0C 0C 08 TSB &080C
3F37 04 0C    TSB &0C
3F39 C0 60    CPY #&60
3F3B 30 10    BMI &3F4D
3F3D 30 30    BMI &3F6F
3F3F 60       RTS
3F40 48       PHA
3F41 0C 0C 0C TSB &0C0C
3F44 0C 0C 0C TSB &0C0C
3F47 3F       ???
3F48 3F       ???
3F49 2E 84 84 ROL &8484
3F4C 80 84    BRA &3ED2
3F4E 84 C0    STY &C0
3F50 C0 C0    CPY #&C0
3F52 C0 84    CPY #&84
3F54 84 80    STY &80
3F56 84 84    STY &84
3F58 84 84    STY &84
3F5A 0C 0C 48 TSB &480C
3F5D C0 C0    CPY #&C0
3F5F C0 C0    CPY #&C0
3F61 C0 48    CPY #&48
3F63 48       PHA
3F64 48       PHA
3F65 48       PHA
3F66 48       PHA
3F67 40       RTI
3F68 0C C0 C0 TSB &C0C0
3F6B C0 C0    CPY #&C0
3F6D 48       PHA
3F6E 48       PHA
3F6F 40       RTI
3F70 48       PHA
3F71 48       PHA
3F72 48       PHA
3F73 48       PHA
3F74 0C 0C 84 TSB &840C
3F77 C0 C0    CPY #&C0
3F79 C0 C0    CPY #&C0
3F7B C0 C0    CPY #&C0
3F7D C0 C0    CPY #&C0
3F7F C0 C0    CPY #&C0
3F81 C0 C0    CPY #&C0
3F83 C0 C0    CPY #&C0
3F85 C0 84    CPY #&84
3F87 C0 90    CPY #&90
3F89 30 20    BMI &3FAB
3F8B 30 30    BMI &3FBD
3F8D 90 84    BCC &3F13
3F8F 0C 0C 0C TSB &0C0C
3F92 0C 0C 0C TSB &0C0C
3F95 3F       ???
3F96 1D 0C 0C ORA &0C0C,X
3F99 0C 0C 0C TSB &0C0C
3F9C 0C 0C 08 TSB &080C
3F9F 04 0C    TSB &0C
3FA1 C0 60    CPY #&60
3FA3 30 10    BMI &3FB5
3FA5 30 30    BMI &3FD7
3FA7 60       RTS
3FA8 48       PHA
3FA9 0C 0C 0C TSB &0C0C
3FAC 0C 0C 0C TSB &0C0C
3FAF 3F       ???
3FB0 3F       ???
3FB1 2E 84 84 ROL &8484
3FB4 84 84    STY &84
3FB6 84 84    STY &84
3FB8 80 84    BRA &3F3E
3FBA 84 84    STY &84
3FBC 84 80    STY &80
3FBE 84 84    STY &84
3FC0 84 84    STY &84
3FC2 0C 0C 48 TSB &480C
3FC5 C0 C0    CPY #&C0
3FC7 C0 C0    CPY #&C0
3FC9 C0 48    CPY #&48
3FCB 48       PHA
3FCC 48       PHA
3FCD 48       PHA
3FCE 48       PHA
3FCF 48       PHA
3FD0 48       PHA
3FD1 48       PHA
3FD2 48       PHA
3FD3 40       RTI
3FD4 0C C0 C0 TSB &C0C0
3FD7 C0 C0    CPY #&C0
3FD9 C0 C0    CPY #&C0
3FDB 48       PHA
3FDC 48       PHA
3FDD 0C 0C 84 TSB &840C
3FE0 C0 C0    CPY #&C0
3FE2 C0 C0    CPY #&C0
3FE4 C0 C0    CPY #&C0
3FE6 C0 C0    CPY #&C0
3FE8 C0 C0    CPY #&C0
3FEA C0 C0    CPY #&C0
3FEC C0 0C    CPY #&0C
3FEE 0C 0C C0 TSB &C00C
3FF1 C0 C0    CPY #&C0
3FF3 C0 84    CPY #&84
3FF5 C0 C0    CPY #&C0
3FF7 C0 C0    CPY #&C0
3FF9 C0 C0    CPY #&C0
3FFB C0 C0    CPY #&C0
3FFD 0C 0C 0C TSB &0C0C
4000 C0 C0    CPY #&C0
4002 84 0C    STY &0C
4004 08       PHP
4005 C0 C0    CPY #&C0
4007 C0 C0    CPY #&C0
4009 C0 C0    CPY #&C0
400B C0 C0    CPY #&C0
400D 0C 0C 0C TSB &0C0C
4010 C0 C0    CPY #&C0
4012 0C 04 0C TSB &0C04
4015 C0 C0    CPY #&C0
4017 C0 C0    CPY #&C0
4019 C0 C0    CPY #&C0
401B C0 C0    CPY #&C0
401D 1D 1D 2A ORA &2A1D,X
4020 2E 2A 1D ROL &1D2A
4023 0C 0C C0 TSB &C00C
4026 C0 84    CPY #&84
4028 90 0C    BCC &4036
402A 81 84    STA (&84,X)
402C C0 0C    CPY #&0C
402E 08       PHP
402F 04 0C    TSB &0C
4031 00       BRK
4032 0C C0 C0 TSB &C0C0
4035 30 0C    BMI &4043
4037 0C 0C 0C TSB &0C0C
403A 0C 0C 0C TSB &0C0C
403D 04 0C    TSB &0C
403F 08       PHP
4040 04 0C    TSB &0C
4042 48       PHA
4043 C0 C0    CPY #&C0
4045 60       RTS
4046 30 18    BMI &4060
4048 18       CLC
4049 18       CLC
404A 48       PHA
404B 48       PHA
404C 48       PHA
404D 48       PHA
404E 48       PHA
404F 48       PHA
4050 C0 C0    CPY #&C0
4052 C0 C0    CPY #&C0
4054 C0 C0    CPY #&C0
4056 C0 C0    CPY #&C0
4058 C0 84    CPY #&84
405A 84 C0    STY &C0
405C C0 C0    CPY #&C0
405E C0 C0    CPY #&C0
4060 C0 C0    CPY #&C0
4062 C0 C0    CPY #&C0
4064 C0 84    CPY #&84
4066 0C 0C 0C TSB &0C0C
4069 84 C0    STY &C0
406B C0 84    CPY #&84
406D C0 C0    CPY #&C0
406F 90 84    BCC &3FF5
4071 0C 24 0C TSB &0C24
4074 0C 06 0C TSB &0C06
4077 80 84    BRA &3FFD
4079 08       PHP
407A 0C 08 0C TSB &0C08
407D 84 95    STY &95
407F 0C 0C C0 TSB &C00C
4082 48       PHA
4083 04 0C    TSB &0C
4085 48       PHA
4086 C0 C0    CPY #&C0
4088 C0 30    CPY #&30
408A 18       CLC
408B 0C 0C 0C TSB &0C0C
408E 0C 08 04 TSB &0408
4091 0C 08 0C TSB &0C08
4094 00       BRK
4095 0C 00 0C TSB &0C00
4098 3F       ???
4099 0C 0C 0C TSB &0C0C
409C 84 C0    STY &C0
409E C0 C0    CPY #&C0
40A0 C0 C0    CPY #&C0
40A2 C0 90    CPY #&90
40A4 60       RTS
40A5 60       RTS
40A6 60       RTS
40A7 60       RTS
40A8 C0 C0    CPY #&C0
40AA C0 48    CPY #&48
40AC 0C 04 0C TSB &0C04
40AF 0C C0 C0 TSB &C0C0
40B2 C0 C0    CPY #&C0
40B4 C0 48    CPY #&48
40B6 48       PHA
40B7 0C 0C 84 TSB &840C
40BA 84 C0    STY &C0
40BC 84 C0    STY &C0
40BE C0 C0    CPY #&C0
40C0 C0 C0    CPY #&C0
40C2 C0 C0    CPY #&C0
40C4 C0 C0    CPY #&C0
40C6 C0 48    CPY #&48
40C8 48       PHA
40C9 C0 C0    CPY #&C0
40CB C0 C0    CPY #&C0
40CD C0 C0    CPY #&C0
40CF C0 C0    CPY #&C0
40D1 C0 C0    CPY #&C0
40D3 48       PHA
40D4 04 48    TSB &48
40D6 C0 C0    CPY #&C0
40D8 C0 C0    CPY #&C0
40DA C0 C0    CPY #&C0
40DC C0 C0    CPY #&C0
40DE C0 C0    CPY #&C0
40E0 C0 C0    CPY #&C0
40E2 48       PHA
40E3 0C 84 C0 TSB &C084
40E6 C0 C0    CPY #&C0
40E8 C0 C0    CPY #&C0
40EA C0 C0    CPY #&C0
40EC C0 C0    CPY #&C0
40EE C0 84    CPY #&84
40F0 0C 0C 0C TSB &0C0C
40F3 C0 C0    CPY #&C0
40F5 C0 C0    CPY #&C0
40F7 C0 C0    CPY #&C0
40F9 C0 C0    CPY #&C0
40FB 84 0C    STY &0C
40FD 48       PHA
40FE C0 0C    CPY #&0C
4100 0C C0 C0 TSB &C0C0
4103 C0 C0    CPY #&C0
4105 C0 C0    CPY #&C0
4107 C0 C0    CPY #&C0
4109 C0 48    CPY #&48
410B 0C 95 0C TSB &0C95
410E 0C C0 C0 TSB &C0C0
4111 C0 C0    CPY #&C0
4113 84 C0    STY &C0
4115 C0 C0    CPY #&C0
4117 C0 84    CPY #&84
4119 08       PHP
411A 2E 2A 0C ROL &0C2A
411D 90 84    BCC &40A3
411F 0C 24 0C TSB &0C24
4122 06 0C    ASL &0C
4124 84 0C    STY &0C
4126 04 0C    TSB &0C
4128 0C 00 0C TSB &0C00
412B 30 18    BMI &4145
412D 0C 0C 0C TSB &0C0C
4130 0C 08 04 TSB &0408
4133 0C 0C 0C TSB &0C0C
4136 08       PHP
4137 04 0C    TSB &0C
4139 90 60    BCC &419B
413B 60       RTS
413C 60       RTS
413D 60       RTS
413E C0 C0    CPY #&C0
4140 C0 C0    CPY #&C0
4142 48       PHA
4143 48       PHA
4144 48       PHA
4145 48       PHA
4146 C0 41    CPY #&41
4148 CF       ???
4149 82       ???
414A CB       WAI
414B 50 CC    BVC &4119
414D A0 D8    LDY #&D8
414F 8A       TXA
4150 97       ???
4151 2A       ROL A
4152 45 88    EOR &88
4154 B5 2A    LDA 2A,X
4156 44 6F    ??? &6F
4158 41 6B    EOR (&6B,X)
415A 45 6E    EOR &6E
415C 50 7A    BVC &41D8
415E 44 C7    ??? &C7
4160 6B       ???
4161 CF       ???
4162 C7       ???
4163 E4 7A    CPX &7A
4165 CC E4 00 CPY &00E4
4168 00       BRK
4169 00       BRK
416A A0 A0    LDY #&A0
416C A0 F0    LDY #&F0
416E F0 F0    BEQ &4160
4170 F0 45    BEQ &41B7
4172 45 45    EOR &45
4174 45 00    EOR &00
4176 00       BRK
4177 00       BRK
4178 00       BRK
4179 00       BRK
417A 00       BRK
417B 00       BRK
417C 00       BRK
417D 00       BRK
417E 00       BRK
417F 00       BRK
4180 00       BRK
4181 A0 A0    LDY #&A0
4183 F0 50    BEQ &41D5
4185 50 50    BVC &41D7
4187 00       BRK
4188 A0 A0    LDY #&A0
418A CF       ???
418B CF       ???
418C 8A       TXA
418D 8A       TXA
418E CF       ???
418F 45 00    EOR &00
4191 00       BRK
4192 00       BRK
4193 00       BRK
4194 00       BRK
4195 00       BRK
4196 00       BRK
4197 50 F0    BVC &4189
4199 F0 50    BEQ &41EB
419B 50 00    BVC &419D
419D A0 A0    LDY #&A0
419F F0 50    BEQ &41F1
41A1 00       BRK
41A2 45 E5    EOR &E5
41A4 45 CF    EOR &CF
41A6 8A       TXA
41A7 CF       ???
41A8 CE CC 44 DEC &44CC
41AB 00       BRK
41AC 00       BRK
41AD 00       BRK
41AE 00       BRK
41AF 50 50    BVC &4201
41B1 50 A0    BVC &4153
41B3 A0 A0    LDY #&A0
41B5 F0 50    BEQ &4207
41B7 A0 8A    LDY #&8A
41B9 DA       PHX
41BA 8A       TXA
41BB DA       PHX
41BC CF       ???
41BD CF       ???
41BE 45 8A    EOR &8A
41C0 CF       ???
41C1 8A       TXA
41C2 CC 88 CC CPY &CC88
41C5 44 15    ??? &15
41C7 00       BRK
41C8 50 50    BVC &421A
41CA 50 A0    BVC &416C
41CC A0 A0    LDY #&A0
41CE A0 A0    LDY #&A0
41D0 45 A0    EOR &A0
41D2 CF       ???
41D3 8A       TXA
41D4 00       BRK
41D5 8A       TXA
41D6 CF       ???
41D7 CF       ???
41D8 CD 44 44 CMP &4444
41DB CC CC 88 CPY &88CC
41DE 2A       ROL A
41DF 00       BRK
41E0 00       BRK
41E1 50 50    BVC &4233
41E3 50 F0    BVC &41D5
41E5 A0 F0    LDY #&F0
41E7 50 50    BVC &4239
41E9 CF       ???
41EA CF       ???
41EB 8A       TXA
41EC CF       ???
41ED CF       ???
41EE 45 CF    EOR &CF
41F0 CE 44 88 DEC &8844
41F3 88       DEY
41F4 00       BRK
41F5 00       BRK
41F6 00       BRK
41F7 00       BRK
41F8 A0 A0    LDY #&A0
41FA 50 50    BVC &424C
41FC A0 A0    LDY #&A0
41FE 00       BRK
41FF 50 45    BVC &4246
4201 CF       ???
4202 45 8A    EOR &8A
4204 8A       TXA
4205 8A       TXA
4206 8A       TXA
4207 00       BRK
4208 00       BRK
4209 00       BRK
420A 00       BRK
420B 00       BRK
420C 00       BRK
420D 00       BRK
420E 00       BRK
420F A0 A0    LDY #&A0
4211 F0 50    BEQ &4263
4213 50 F0    BVC &4205
4215 F0 F0    BEQ &4207
4217 A0 8A    LDY #&8A
4219 8A       TXA
421A 00       BRK
421B 00       BRK
421C 00       BRK
421D 00       BRK
421E 00       BRK
421F 00       BRK
4220 00       BRK
4221 00       BRK
4222 00       BRK
4223 00       BRK
4224 00       BRK
4225 00       BRK
4226 00       BRK
4227 06 06    ASL &06
4229 46 46    LSR &46
422B 43       ???
422C 0C 0C 0C TSB &0C0C
422F 0C 03 0C TSB &0C03
4232 0C 0C 0C TSB &0C0C
4235 03       ???
4236 09 49    ORA #&49
4238 49 49    EOR #&49
423A 43       ???
423B 0C 0C 0C TSB &0C0C
423E 0C 03 0C TSB &0C03
4241 0C 0C 8C TSB &8C0C
4244 C3       ???
4245 42       ???
4246 43       ???
4247 02       ???
4248 02       ???
4249 02       ???
424A 03       ???
424B 00       BRK
424C 40       RTI
424D C2       ???
424E C1 42    CMP (&42,X)
4250 40       RTI
4251 C0 01    CPY #&01
4253 02       ???
4254 C0 42    CPY #&42
4256 01 02    ORA (&02,X)
4258 02       ???
4259 02       ???
425A 02       ???
425B 02       ???
425C 02       ???
425D 03       ???
425E 83       ???
425F 83       ???
4260 C3       ???
4261 C3       ???
4262 43       ???
4263 43       ???
4264 C3       ???
4265 C3       ???
4266 C3       ???
4267 43       ???
4268 43       ???
4269 CF       ???
426A 4C 4F CF JMP &CF4F
426D CF       ???
426E 0E 0F 0F ASL &0F0F
4271 0E 08 0E ASL &0E08
4274 0E 0E 0C ASL &0C0E
4277 CE CE CD DEC &CDCE
427A 0C 0D CD TSB &CD0D
427D CD C4 CD CMP &CDC4
4280 CD CF CD CMP &CDCF
4283 CF       ???
4284 CF       ???
4285 0F       ???
4286 0C 0F 0F TSB &0F0F
4289 0B       ???
428A 03       ???
428B 03       ???
428C 00       BRK
428D 43       ???
428E 43       ???
428F 43       ???
4290 CE CE CC DEC &CCCE
4293 CC CC CC CPY &CCCC
4296 CC CC CC CPY &CCCC
4299 CC 8C 8C CPY &8C8C
429C 0C 0C 48 TSB &480C
429F 08       PHP
42A0 00       BRK
42A1 4F       ???
42A2 47       ???
42A3 87       ???
42A4 85 07    STA &07
42A6 07       ???
42A7 C7       ???
42A8 CF       ???
42A9 CF       ???
42AA CF       ???
42AB CF       ???
42AC CF       ???
42AD CF       ???
42AE CF       ???
42AF CF       ???
42B0 CF       ???
42B1 CF       ???
42B2 CF       ???
42B3 4F       ???
42B4 48       PHA
42B5 C8       INY
42B6 C0 0F    CPY #&0F
42B8 0F       ???
42B9 00       BRK
42BA 00       BRK
42BB 00       BRK
42BC 00       BRK
42BD 01 C1    ORA (&C1,X)
42BF C1 C1    CMP (&C1,X)
42C1 C1 C3    CMP (&C3,X)
42C3 C5 CF    CMP &CF
42C5 CF       ???
42C6 C1 C0    CMP (&C0,X)
42C8 C3       ???
42C9 C1 80    CMP (&80,X)
42CB C1 81    CMP (&81,X)
42CD 80 03    BRA &42D2
42CF 02       ???
42D0 01 0F    ORA (&0F,X)
42D2 0F       ???
42D3 0F       ???
42D4 0F       ???
42D5 0F       ???
42D6 CF       ???
42D7 CF       ???
42D8 CF       ???
42D9 CF       ???
42DA CF       ???
42DB CF       ???
42DC CF       ???
42DD CF       ???
42DE CF       ???
42DF CF       ???
42E0 CF       ???
42E1 CF       ???
42E2 CF       ???
42E3 8F       ???
42E4 0F       ???
42E5 4F       ???
42E6 CF       ???
42E7 0F       ???
42E8 0F       ???
42E9 0F       ???
42EA 0F       ???
42EB 0F       ???
42EC 0F       ???
42ED 0F       ???
42EE 0F       ???
42EF CF       ???
42F0 CE CE CE DEC &CECE
42F3 CE CE CE DEC &CECE
42F6 CE CF CF DEC &CFCF
42F9 CE 4E CE DEC &CE4E
42FC CE CE 8F DEC &8FCE
42FF 0F       ???
4300 0F       ???
4301 0F       ???
4302 0F       ???
4303 0F       ???
4304 0F       ???
4305 0F       ???
4306 0F       ???
4307 0F       ???
4308 8F       ???
4309 8F       ???
430A CF       ???
430B CF       ???
430C CF       ???
430D CF       ???
430E CF       ???
430F CC CC 8F CPY &8FCC
4312 8F       ???
4313 8D 0F 0F STA &0F0F
4316 0C CC CF TSB &CFCC
4319 CF       ???
431A CF       ???
431B CF       ???
431C CF       ???
431D CF       ???
431E CC CD CD CPY &CDCD
4321 8C 8F 8E STY &8E8F
4324 88       DEY
4325 88       DEY
4326 CC CE CC CPY &CCCE
4329 CC CC 8E CPY &8ECC
432C 8C 8E 8C STY &8C8E
432F 88       DEY
4330 8C 8C CC STY &CC8C
4333 CC CC CC CPY &CCCC
4336 8C 8C 8C STY &8C8C
4339 8F       ???
433A 8C CC CC STY &CCCC
433D C0 C8    CPY #&C8
433F C4 88    CPY &88
4341 84 88    STY &88
4343 8C 8C 8C STY &8C8C
4346 80 CC    BRA &4314
4348 C8       INY
4349 C4 CC    CPY &CC
434B CC CF CF CPY &CFCF
434E CF       ???
434F CF       ???
4350 CF       ???
4351 CF       ???
4352 CF       ???
4353 4F       ???
4354 4D 4C 4D EOR &4D4C
4357 44 C8    ??? &C8
4359 C0 CC    CPY #&CC
435B C4 CC    CPY &CC
435D 4C 4C 4C JMP &4C4C
4360 44 4C    ??? &4C
4362 4C 40 CC JMP &CC40
4365 CC CE CE CPY &CECE
4368 4E 4E 4E LSR &4E4E
436B 4E 4E CD LSR &CD4E
436E CD CD CF CMP &CFCD
4371 CF       ???
4372 4D 4D 4D EOR &4D4D
4375 4F       ???
4376 4D 4C 4C EOR &4C4C
4379 CF       ???
437A CD CF CD CMP &CDCF
437D CD CC CC CMP &CCCC
4380 CD CD CD CMP &CDCD
4383 CD CD 8D CMP &8DCD
4386 8C 8F 8F STY &8F8F
4389 8F       ???
438A CF       ???
438B CF       ???
438C CE CE CE DEC &CECE
438F CE 8E 8C DEC &8C8E
4392 0C 0F 8F TSB &8F0F
4395 8C CE CE STY &CECE
4398 CC 8C 8F CPY &8F8C
439B 0F       ???
439C 0F       ???
439D 8F       ???
439E 8F       ???
439F CF       ???
43A0 CD CC CC CMP &CCCC
43A3 CC 8D 8D CPY &8D8D
43A6 8F       ???
43A7 8C 8C 8C STY &8C8C
43AA 86 CE    STX &CE
43AC CE CC CC DEC &CCCC
43AF CC CF CD CPY &CDCF
43B2 CD CD CD CMP &CDCD
43B5 CD CD 4C CMP &4CCD
43B8 4C 4C 46 JMP &464C
43BB 46 C6    LSR &C6
43BD CC CC CC CPY &CCCC
43C0 CD 4F 0F CMP &0F4F
43C3 0F       ???
43C4 0F       ???
43C5 0F       ???
43C6 0F       ???
43C7 0D 4D 4D ORA &4D4D
43CA 47       ???
43CB 0F       ???
43CC 0F       ???
43CD 0D 0D 0D ORA &0D0D
43D0 0F       ???
43D1 43       ???
43D2 C3       ???
43D3 C3       ???
43D4 C3       ???
43D5 C3       ???
43D6 53       ???
43D7 53       ???
43D8 53       ???
43D9 53       ???
43DA 53       ???
43DB 53       ???
43DC 53       ???
43DD C3       ???
43DE C3       ???
43DF C3       ???
43E0 C3       ???
43E1 C0 CA    CPY #&CA
43E3 CF       ???
43E4 CF       ???
43E5 CF       ???
43E6 CF       ???
43E7 CA       DEX
43E8 C2       ???
43E9 C3       ???
43EA C3       ???
43EB C3       ???
43EC C3       ???
43ED C3       ???
43EE C3       ???
43EF C3       ???
43F0 C3       ???
43F1 CF       ???
43F2 CF       ???
43F3 CE 8E 8E DEC &8E8E
43F6 0E 0C 8C ASL &8C0C
43F9 8C C8 C8 STY &C8C8
43FC C0 84    CPY #&84
43FE 84 04    STY &04
4400 04 8D    TSB &8D
4402 8D CD CD STA &CDCD
4405 CD CD CC CMP &CCCD
4408 CC CC C5 CPY &C5CC
440B CD CD CD CMP &CDCD
440E CD CD CD CMP &CDCD
4411 CC CC C8 CPY &C8CC
4414 C8       INY
4415 C0 C0    CPY #&C0
4417 C0 C0    CPY #&C0
4419 C0 C0    CPY #&C0
441B 00       BRK
441C 00       BRK
441D 00       BRK
441E 00       BRK
441F 00       BRK
4420 C0 C8    CPY #&C8
4422 C8       INY
4423 C0 C0    CPY #&C0
4425 40       RTI
4426 00       BRK
4427 00       BRK
4428 00       BRK
4429 00       BRK
442A 00       BRK
442B 00       BRK
442C 40       RTI
442D 40       RTI
442E 40       RTI
442F 00       BRK
4430 00       BRK
4431 0F       ???
4432 0F       ???
4433 0F       ???
4434 0F       ???
4435 4F       ???
4436 C0 C0    CPY #&C0
4438 C0 C0    CPY #&C0
443A 00       BRK
443B 00       BRK
443C 00       BRK
443D 00       BRK
443E 00       BRK
443F 00       BRK
4440 00       BRK
4441 CC C8 C8 CPY &C8C8
4444 C8       INY
4445 C8       INY
4446 C8       INY
4447 CC C8 C8 CPY &C8C8
444A C8       INY
444B C8       INY
444C C8       INY
444D C8       INY
444E C8       INY
444F C4 C4    CPY &C4
4451 C4 C4    CPY &C4
4453 C4 C4    CPY &C4
4455 C4 C0    CPY &C0
4457 C0 C0    CPY #&C0
4459 C0 40    CPY #&40
445B 40       RTI
445C C0 CC    CPY #&CC
445E C0 C0    CPY #&C0
4460 CC C8 C8 CPY &C8C8
4463 4C 48 C8 JMP &C848
4466 C8       INY
4467 C8       INY
4468 C0 C0    CPY #&C0
446A C8       INY
446B CC C0 C0 CPY &C0C0
446E CC C0 C0 CPY &C0C0
4471 CC C8 C8 CPY &C8C8
4474 C8       INY
4475 C8       INY
4476 C8       INY
4477 C8       INY
4478 C8       INY
4479 C8       INY
447A C8       INY
447B C8       INY
447C CC C0 C0 CPY &C0C0
447F 00       BRK
4480 08       PHP
4481 08       PHP
4482 08       PHP
4483 08       PHP
4484 C8       INY
4485 C8       INY
4486 C8       INY
4487 CC C8 08 CPY &08C8
448A 0C 00 00 TSB &0000
448D 0C 08 00 TSB &0008
4490 C0 C8    CPY #&C8
4492 C8       INY
4493 C8       INY
4494 08       PHP
4495 0C 08 08 TSB &0808
4498 0C C8 C8 TSB &C8C8
449B CC C8 C0 CPY &C0C8
449E 00       BRK
449F 08       PHP
44A0 08       PHP
44A1 08       PHP
44A2 08       PHP
44A3 0C 00 C0 TSB &C000
44A6 C0 D0    CPY #&D0
44A8 D0 D0    BNE &447A
44AA D8       CLD
44AB D8       CLD
44AC D8       CLD
44AD D8       CLD
44AE D8       CLD
44AF D8       CLD
44B0 D8       CLD
44B1 DC D8 D8 ??? &D8D8
44B4 DC D8 D8 ??? &D8D8
44B7 DC D8 D8 ??? &D8D8
44BA D8       CLD
44BB D8       CLD
44BC D8       CLD
44BD D8       CLD
44BE D8       CLD
44BF DC D8 D8 ??? &D8D8
44C2 DC D0 D0 ??? &D0D0
44C5 DC D8 D8 ??? &D8D8
44C8 D8       CLD
44C9 D8       CLD
44CA D8       CLD
44CB D8       CLD
44CC D8       CLD
44CD DB       STP
44CE DB       STP
44CF D7       ???
44D0 D7       ???
44D1 D7       ???
44D2 DB       STP
44D3 DB       STP
44D4 D3       ???
44D5 DF       ???
44D6 DF       ???
44D7 DF       ???
44D8 DF       ???
44D9 1F       ???
44DA 1F       ???
44DB 0F       ???
44DC 03       ???
44DD 0B       ???
44DE 3B       ???
44DF 1F       ???
44E0 3F       ???
44E1 0F       ???
44E2 1B       ???
44E3 0B       ???
44E4 33       ???
44E5 3F       ???
44E6 2F       ???
44E7 37       ???
44E8 37       ???
44E9 07       ???
44EA 3F       ???
44EB 0F       ???
44EC 37       ???
44ED 03       ???
44EE 33       ???
44EF 1F       ???
44F0 2B       ???
44F1 13       ???
44F2 2B       ???
44F3 3F       ???
44F4 0F       ???
44F5 33       ???
44F6 3B       ???
44F7 2F       ???
44F8 3F       ???
44F9 23       ???
44FA 33       ???
44FB 07       ???
44FC 3F       ???
44FD 1F       ???
44FE 2F       ???
44FF 17       ???
4500 27       ???
4501 33       ???
4502 03       ???
4503 3B       ???
4504 2F       ???
4505 1B       ???
4506 2B       ???
4507 1F       ???
4508 3B       ???
4509 03       ???
450A 3B       ???
450B 1F       ???
450C 0F       ???
450D 03       ???
450E 2F       ???
450F 37       ???
4510 33       ???
4511 03       ???
4512 03       ???
4513 07       ???
4514 0F       ???
4515 0F       ???
4516 2F       ???
4517 07       ???
4518 C3       ???
4519 C3       ???
451A CF       ???
451B CF       ???
451C C3       ???
451D C3       ???
451E C3       ???
451F C7       ???
4520 CB       WAI
4521 CB       WAI
4522 8B       ???
4523 87       ???
4524 87       ???
4525 83       ???
4526 8F       ???
4527 8F       ???
4528 83       ???
4529 CB       WAI
452A CB       WAI
452B CF       ???
452C CF       ???
452D C7       ???
452E CF       ???
452F CF       ???
4530 CF       ???
4531 C3       ???
4532 CB       WAI
4533 C3       ???
4534 C7       ???
4535 C3       ???
4536 C3       ???
4537 C7       ???
4538 CB       WAI
4539 CB       WAI
453A CB       WAI
453B C7       ???
453C C7       ???
453D C3       ???
453E C3       ???
453F CF       ???
4540 CF       ???
4541 C7       ???
4542 C7       ???
4543 CF       ???
4544 CF       ???
4545 C7       ???
4546 CF       ???
4547 CF       ???
4548 CF       ???
4549 C7       ???
454A CF       ???
454B CF       ???
454C CF       ???
454D CC CC CC CPY &CCCC
4550 C8       INY
4551 C8       INY
4552 C8       INY
4553 CC 4C 4C CPY &4C4C
4556 4C 4C 4C JMP &4C4C
4559 48       PHA
455A 48       PHA
455B C8       INY
455C C8       INY
455D C8       INY
455E C8       INY
455F C8       INY
4560 CC CC CC CPY &CCCC
4563 CC C4 C4 CPY &C4C4
4566 C4 CC    CPY &CC
4568 CC CC CC CPY &CCCC
456B CC CC C4 CPY &C4CC
456E C4 C4    CPY &C4
4570 C4 C4    CPY &C4
4572 C4 C4    CPY &C4
4574 CC CC CC CPY &CCCC
4577 C8       INY
4578 C8       INY
4579 C8       INY
457A C8       INY
457B C8       INY
457C 0C 1C 1C TSB &1C1C
457F 0C 0C 0C TSB &0C0C
4582 38       SEC
4583 08       PHP
4584 00       BRK
4585 30 38    BMI &45BF
4587 38       SEC
4588 1C 1C 0C TRB &0C1C
458B 14 24    TRB &24
458D 24 34    BIT &34
458F 04 3C    TSB &3C
4591 3C 0C 0C BIT &0C0C,X
4594 3C 04 00 BIT &0004,X
4597 30 00    BMI &4599
4599 00       BRK
459A 30 30    BMI &45CC
459C 24 2C    BIT &2C
459E 0C 2C 1C TSB &1C2C
45A1 1C 3C 0C TRB &0C3C
45A4 0C 2C 2C TSB &2C2C
45A7 0C 0C 0C TSB &0C0C
45AA 38       SEC
45AB 08       PHP
45AC 00       BRK
45AD 30 08    BMI &45B7
45AF 08       PHP
45B0 0C 0C 3C TSB &3C0C
45B3 10 10    BPL &45C5
45B5 30 00    BMI &45B7
45B7 00       BRK
45B8 1C 2C 3C TRB &3C2C
45BB 0C 0C 24 TSB &240C
45BE 10 20    BPL &45E0
45C0 30 20    BMI &45E2
45C2 30 00    BMI &45C4
45C4 04 0C    TSB &0C
45C6 1C 3C 2C TRB &2C3C
45C9 2C 2C 2C BIT &2C2C
45CC 2C 2C 3C BIT &3C2C
45CF 2C 1C 3C BIT &3C1C
45D2 2C 2C 24 BIT &242C
45D5 24 2C    BIT &2C
45D7 2C 3C 2C BIT &2C3C
45DA 1C 3C 20 TRB &203C
45DD 20 20 2C JSR &2C20
45E0 2C 2C 3C BIT &3C2C
45E3 2C 1C 30 BIT &301C
45E6 20 20 20 JSR &2020
45E9 20 20 20 JSR &2020
45EC 3C 2D 2D BIT &2D2D,X
45EF 1D 2D 0D ORA &0D2D,X
45F2 0D 2D 1D ORA &1D2D
45F5 2D 2D 0D AND &0D2D
45F8 2D 1D 1D AND &1D1D
45FB 2D 0D 2D AND &2D0D
45FE 2D 1D 2D AND &2D1D
4601 0C 0C 2C TSB &2C0C
4604 1C 2C 2C TRB &2C2C
4607 0C 2C 0C TSB &0C2C
460A 0C 28 08 TSB &0828
460D 28       PLP
460E F8       SED
460F EC EC FC CPX &FCEC
4612 FC F8 F8 ??? &F8F8
4615 F8       SED
4616 F8       SED
4617 FC FC FC ??? &FCFC
461A FC FC FC ??? &FCFC
461D FC FC FC ??? &FCFC
4620 FC F4 E4 ??? &E4F4
4623 E4 C4    CPX &C4
4625 8C 8C 8C STY &8C8C
4628 8C 84 84 STY &8484
462B 84 84    STY &84
462D 8F       ???
462E 8E 8C 8D STX &8D8C
4631 8C 8C 2F STY &2F8C
4634 2F       ???
4635 BD FE ED LDA &EDFE,X
4638 CF       ???
4639 DE DD DE DEC &DEDD,X
463C DF       ???
463D DD DE DF CMP &DFDE,X
4640 DD DD DE CMP &DEDD,X
4643 DE 7E 7D DEC &7D7E,X
4646 7D 7F 73 ADC &737F,X
4649 F2 00    SBC (00)
464B 00       BRK
464C 00       BRK
464D 00       BRK
464E 00       BRK
464F 00       BRK
4650 00       BRK
4651 00       BRK
4652 00       BRK
4653 00       BRK
4654 00       BRK
4655 00       BRK
4656 02       ???
4657 03       ???
4658 01 00    ORA (&00,X)
465A 00       BRK
465B 40       RTI
465C 40       RTI
465D 00       BRK
465E 10 20    BPL &4680
4660 20 80 80 JSR &8080
4663 81 83    STA (&83,X)
4665 83       ???
4666 83       ???
4667 80 80    BRA &45E9
4669 80 80    BRA &45EB
466B 80 80    BRA &45ED
466D 80 80    BRA &45EF
466F C1 43    CMP (&43,X)
4671 42       ???
4672 00       BRK
4673 23       ???
4674 23       ???
4675 20 20 20 JSR &2020
4678 80 80    BRA &45FA
467A 80 80    BRA &45FC
467C 80 80    BRA &45FE
467E 82       ???
467F 83       ???
4680 81 83    STA (&83,X)
4682 83       ???
4683 C0 40    CPY #&40
4685 00       BRK
4686 D0 C0    BNE &4648
4688 D0 D0    BNE &465A
468A D0 40    BNE &46CC
468C D1 D2    CMP (&D2),Y
468E F3       ???
468F D2 F3    CMP (F3)
4691 F5 FF    SBC FF,X
4693 CF       ???
4694 F1 F0    SBC (&F0),Y
4696 F3       ???
4697 C1 F0    CMP (&F0,X)
4699 F3       ???
469A F1 E3    SBC (&E3),Y
469C F3       ???
469D F0 E3    BEQ &4682
469F 8F       ???
46A0 EF       ???
46A1 EF       ???
46A2 E7       ???
46A3 C3       ???
46A4 E3       ???
46A5 E3       ???
46A6 C3       ???
46A7 03       ???
46A8 03       ???
46A9 C3       ???
46AA 02       ???
46AB 01 03    ORA (&03,X)
46AD C0 CA    CPY #&CA
46AF 0A       ASL A
46B0 0A       ASL A
46B1 CA       DEX
46B2 0A       ASL A
46B3 00       BRK
46B4 00       BRK
46B5 C0 C2    CPY #&C2
46B7 02       ???
46B8 02       ???
46B9 C2       ???
46BA 00       BRK
46BB 00       BRK
46BC 00       BRK
46BD C0 C0    CPY #&C0
46BF 04 04    TSB &04
46C1 C0 00    CPY #&00
46C3 08       PHP
46C4 0C C4 80 TSB &80C4
46C7 84 C4    STY &C4
46C9 C4 40    CPY &40
46CB 80 C0    BRA &468D
46CD C0 40    CPY #&40
46CF 40       RTI
46D0 F0 E0    BEQ &46B2
46D2 E0 D0    CPX #&D0
46D4 D0 D0    BNE &46A6
46D6 E4 EC    CPX &EC
46D8 F4 DC    ??? &DC
46DA EC F6 DC CPX &DCF6
46DD E0 D4    CPX #&D4
46DF FC EC D0 ??? &D0EC
46E2 0D 1F 2C ORA &2C1F
46E5 05 20    ORA &20
46E7 0D 1F 36 ORA &361F
46EA 1F       ???
46EB 45 51    EOR &51
46ED 55 42    EOR 42,X
46EF 20 73 68 JSR &6873
46F2 6F       ???
46F3 63       ???
46F4 6B       ???
46F5 3A       DEC A
46F6 45 51    EOR &51
46F8 55 42    EOR 42,X
46FA 20 33 36 JSR &3633
46FD 3A       DEC A
46FE 45 51    EOR &51
4700 55 42    EOR 42,X
4702 20 32 30 JSR &3032
4705 30 0D    BMI &4714
4707 1F       ???
4708 40       RTI
4709 05 20    ORA &20
470B 0D 1F 4A ORA &4A1F
470E 1F       ???
470F 45 51    EOR &51
4711 55 42    EOR 42,X
4713 20 73 68 JSR &6873
4716 6F       ???
4717 63       ???
4718 6B       ???
4719 3A       DEC A
471A 45 51    EOR &51
471C 55 42    EOR 42,X
471E 20 31 36 JSR &3631
4721 3A       DEC A
4722 45 51    EOR &51
4724 55 42    EOR 42,X
4726 20 32 30 JSR &3032
4729 30 0D    BMI &4738
472B 1F       ???
472C 54 05    ??? &05
472E 20 0D 1F JSR &1F0D
4731 5E 1F 45 LSR &451F,X
4734 51 55    EOR (&55),Y
4736 42       ???
4737 20 73 68 JSR &6873
473A 6F       ???
473B 63       ???
473C 6B       ???
473D 3A       DEC A
473E 45 51    EOR &51
4740 55 42    EOR 42,X
4742 20 35 36 JSR &3635
4745 3A       DEC A
4746 45 51    EOR &51
4748 55 42    EOR 42,X
474A 20 32 30 JSR &3032
474D 30 0D    BMI &475C
474F 1F       ???
4750 68       PLA
4751 05 20    ORA &20
4753 0D 1F 72 ORA &721F
4756 0C 45 51 TSB &5145
4759 55 42    EOR 42,X
475B 20 26 46 JSR &4626
475E 33       ???
475F 0D 1F 7C ORA &7C1F
4762 05 20    ORA &20
4764 0D 1F 86 ORA &861F
4767 05 20    ORA &20
4769 0D 1F 90 ORA &901F
476C 1A       INC A
476D 2E 73 63 ROL &6373
4770 72 65    ADC (65)
4772 65 6E    ADC &6E
4774 36 5F    ROL 5F,X
4776 6C 61 6E JMP (&6E61)
4779 74 65    STZ 65,X
477B 72 6E    ADC (6E)
477D 5F       ???
477E 74 61    STZ 61,X
4780 15 3F    ORA 3F,X
4782 15 15    ORA 15,X
4784 15 15    ORA 15,X
4786 3F       ???
4787 00       BRK
4788 00       BRK
4789 00       BRK
478A 00       BRK
478B 00       BRK
478C 00       BRK
478D 00       BRK
478E 2A       ROL A
478F 00       BRK
4790 2A       ROL A
4791 2A       ROL A
4792 2A       ROL A
4793 2A       ROL A
4794 2A       ROL A
4795 2A       ROL A
4796 15 00    ORA 00,X
4798 15 15    ORA 15,X
479A 15 15    ORA 15,X
479C 15 15    ORA 15,X
479E 2A       ROL A
479F 00       BRK
47A0 15 15    ORA 15,X
47A2 15 15    ORA 15,X
47A4 15 15    ORA 15,X
47A6 15 00    ORA 00,X
47A8 2A       ROL A
47A9 15 15    ORA 15,X
47AB 2A       ROL A
47AC 00       BRK
47AD 00       BRK
47AE 00       BRK
47AF 00       BRK
47B0 00       BRK
47B1 00       BRK
47B2 00       BRK
47B3 00       BRK
47B4 00       BRK
47B5 00       BRK
47B6 00       BRK
47B7 00       BRK
47B8 00       BRK
47B9 00       BRK
47BA 00       BRK
47BB 00       BRK
47BC 00       BRK
47BD 00       BRK
47BE 00       BRK
47BF 00       BRK
47C0 00       BRK
47C1 00       BRK
47C2 00       BRK
47C3 00       BRK
47C4 00       BRK
47C5 00       BRK
47C6 00       BRK
47C7 00       BRK
47C8 3F       ???
47C9 2A       ROL A
47CA 2A       ROL A
47CB 2A       ROL A
47CC 2A       ROL A
47CD 2A       ROL A
47CE 3F       ???
47CF 00       BRK
47D0 2A       ROL A
47D1 2A       ROL A
47D2 2A       ROL A
47D3 2A       ROL A
47D4 2A       ROL A
47D5 2A       ROL A
47D6 2A       ROL A
47D7 00       BRK
47D8 3F       ???
47D9 2A       ROL A
47DA 2A       ROL A
47DB 2A       ROL A
47DC 2A       ROL A
47DD 2A       ROL A
47DE 3F       ???
47DF 00       BRK
47E0 2A       ROL A
47E1 2A       ROL A
47E2 2A       ROL A
47E3 2A       ROL A
47E4 2A       ROL A
47E5 2A       ROL A
47E6 2A       ROL A
47E7 00       BRK
47E8 3F       ???
47E9 2A       ROL A
47EA 2A       ROL A
47EB 2A       ROL A
47EC 2A       ROL A
47ED 2A       ROL A
47EE 3F       ???
47EF 00       BRK
47F0 2A       ROL A
47F1 2A       ROL A
47F2 2A       ROL A
47F3 2A       ROL A
47F4 2A       ROL A
47F5 2A       ROL A
47F6 2A       ROL A
47F7 00       BRK
47F8 3F       ???
47F9 2A       ROL A
47FA 2A       ROL A
47FB 2A       ROL A
47FC 2A       ROL A
47FD 2A       ROL A
47FE 3F       ???
47FF 00       BRK
4800 2A       ROL A
4801 2A       ROL A
4802 2A       ROL A
4803 2A       ROL A
4804 2A       ROL A
4805 2A       ROL A
4806 2A       ROL A
4807 00       BRK
4808 3F       ???
4809 2A       ROL A
480A 2A       ROL A
480B 2A       ROL A
480C 2A       ROL A
480D 2A       ROL A
480E 3F       ???
480F 00       BRK
4810 2A       ROL A
4811 2A       ROL A
4812 2A       ROL A
4813 2A       ROL A
4814 2A       ROL A
4815 2A       ROL A
4816 2A       ROL A
4817 00       BRK
4818 3F       ???
4819 2A       ROL A
481A 2A       ROL A
481B 2A       ROL A
481C 2A       ROL A
481D 2A       ROL A
481E 3F       ???
481F 00       BRK
4820 2A       ROL A
4821 2A       ROL A
4822 2A       ROL A
4823 2A       ROL A
4824 2A       ROL A
4825 2A       ROL A
4826 2A       ROL A
4827 00       BRK
4828 00       BRK
4829 00       BRK
482A 00       BRK
482B 00       BRK
482C 00       BRK
482D 00       BRK
482E 00       BRK
482F 00       BRK
4830 00       BRK
4831 00       BRK
4832 00       BRK
4833 00       BRK
4834 00       BRK
4835 00       BRK
4836 00       BRK
4837 00       BRK
4838 00       BRK
4839 00       BRK
483A 00       BRK
483B 00       BRK
483C 00       BRK
483D 00       BRK
483E 00       BRK
483F 00       BRK
4840 00       BRK
4841 00       BRK
4842 00       BRK
4843 00       BRK
4844 00       BRK
4845 00       BRK
4846 00       BRK
4847 00       BRK
4848 00       BRK
4849 00       BRK
484A 00       BRK
484B 00       BRK
484C 00       BRK
484D 00       BRK
484E 00       BRK
484F 00       BRK
4850 00       BRK
4851 00       BRK
4852 00       BRK
4853 00       BRK
4854 00       BRK
4855 00       BRK
4856 00       BRK
4857 00       BRK
4858 00       BRK
4859 00       BRK
485A 00       BRK
485B 00       BRK
485C 00       BRK
485D 00       BRK
485E 00       BRK
485F 00       BRK
4860 00       BRK
4861 00       BRK
4862 00       BRK
4863 00       BRK
4864 00       BRK
4865 00       BRK
4866 00       BRK
4867 00       BRK
4868 00       BRK
4869 00       BRK
486A 00       BRK
486B 00       BRK
486C 00       BRK
486D 00       BRK
486E 00       BRK
486F 00       BRK
4870 00       BRK
4871 00       BRK
4872 00       BRK
4873 00       BRK
4874 00       BRK
4875 00       BRK
4876 00       BRK
4877 00       BRK
4878 3F       ???
4879 15 15    ORA 15,X
487B 15 15    ORA 15,X
487D 15 15    ORA 15,X
487F 00       BRK
4880 2A       ROL A
4881 00       BRK
4882 00       BRK
4883 00       BRK
4884 00       BRK
4885 00       BRK
4886 00       BRK
4887 00       BRK
4888 15 2A    ORA 2A,X
488A 2A       ROL A
488B 2A       ROL A
488C 2A       ROL A
488D 2A       ROL A
488E 15 00    ORA 00,X
4890 2A       ROL A
4891 15 15    ORA 15,X
4893 15 15    ORA 15,X
4895 15 2A    ORA 2A,X
4897 00       BRK
4898 15 15    ORA 15,X
489A 15 15    ORA 15,X
489C 15 15    ORA 15,X
489E 15 00    ORA 00,X
48A0 2A       ROL A
48A1 15 15    ORA 15,X
48A3 2A       ROL A
48A4 00       BRK
48A5 00       BRK
48A6 00       BRK
48A7 00       BRK
48A8 00       BRK
48A9 00       BRK
48AA 00       BRK
48AB 00       BRK
48AC 00       BRK
48AD 00       BRK
48AE 00       BRK
48AF 00       BRK
48B0 00       BRK
48B1 00       BRK
48B2 00       BRK
48B3 00       BRK
48B4 00       BRK
48B5 00       BRK
48B6 00       BRK
48B7 00       BRK
48B8 00       BRK
48B9 00       BRK
48BA 00       BRK
48BB 00       BRK
48BC 00       BRK
48BD 00       BRK
48BE 00       BRK
48BF 00       BRK
48C0 3F       ???
48C1 2A       ROL A
48C2 2A       ROL A
48C3 2A       ROL A
48C4 2A       ROL A
48C5 2A       ROL A
48C6 3F       ???
48C7 00       BRK
48C8 2A       ROL A
48C9 2A       ROL A
48CA 2A       ROL A
48CB 2A       ROL A
48CC 2A       ROL A
48CD 2A       ROL A
48CE 2A       ROL A
48CF 00       BRK
48D0 3F       ???
48D1 2A       ROL A
48D2 2A       ROL A
48D3 2A       ROL A
48D4 2A       ROL A
48D5 2A       ROL A
48D6 3F       ???
48D7 00       BRK
48D8 2A       ROL A
48D9 2A       ROL A
48DA 2A       ROL A
48DB 2A       ROL A
48DC 2A       ROL A
48DD 2A       ROL A
48DE 2A       ROL A
48DF 00       BRK
48E0 3F       ???
48E1 2A       ROL A
48E2 2A       ROL A
48E3 2A       ROL A
48E4 2A       ROL A
48E5 2A       ROL A
48E6 3F       ???
48E7 00       BRK
48E8 2A       ROL A
48E9 2A       ROL A
48EA 2A       ROL A
48EB 2A       ROL A
48EC 2A       ROL A
48ED 2A       ROL A
48EE 2A       ROL A
48EF 00       BRK
48F0 3F       ???
48F1 2A       ROL A
48F2 2A       ROL A
48F3 2A       ROL A
48F4 2A       ROL A
48F5 2A       ROL A
48F6 3F       ???
48F7 00       BRK
48F8 2A       ROL A
48F9 2A       ROL A
48FA 2A       ROL A
48FB 2A       ROL A
48FC 2A       ROL A
48FD 2A       ROL A
48FE 2A       ROL A
48FF 00       BRK
4900 3F       ???
4901 2A       ROL A
4902 2A       ROL A
4903 2A       ROL A
4904 2A       ROL A
4905 2A       ROL A
4906 3F       ???
4907 00       BRK
4908 2A       ROL A
4909 2A       ROL A
490A 2A       ROL A
490B 2A       ROL A
490C 2A       ROL A
490D 2A       ROL A
490E 2A       ROL A
490F 00       BRK
4910 3F       ???
4911 2A       ROL A
4912 2A       ROL A
4913 2A       ROL A
4914 2A       ROL A
4915 2A       ROL A
4916 3F       ???
4917 00       BRK
4918 2A       ROL A
4919 2A       ROL A
491A 2A       ROL A
491B 2A       ROL A
491C 2A       ROL A
491D 2A       ROL A
491E 2A       ROL A
491F 00       BRK
4920 00       BRK
4921 00       BRK
4922 00       BRK
4923 00       BRK
4924 00       BRK
4925 00       BRK
4926 00       BRK
4927 00       BRK
4928 00       BRK
4929 00       BRK
492A 00       BRK
492B 00       BRK
492C 00       BRK
492D 00       BRK
492E 00       BRK
492F 00       BRK
4930 00       BRK
4931 00       BRK
4932 00       BRK
4933 00       BRK
4934 00       BRK
4935 00       BRK
4936 00       BRK
4937 00       BRK
4938 00       BRK
4939 00       BRK
493A 00       BRK
493B 00       BRK
493C 00       BRK
493D 00       BRK
493E 00       BRK
493F 00       BRK
4940 00       BRK
4941 00       BRK
4942 00       BRK
4943 00       BRK
4944 00       BRK
4945 00       BRK
4946 00       BRK
4947 00       BRK
4948 00       BRK
4949 00       BRK
494A 00       BRK
494B 00       BRK
494C 00       BRK
494D 00       BRK
494E 00       BRK
494F 00       BRK
4950 00       BRK
4951 00       BRK
4952 00       BRK
4953 00       BRK
4954 00       BRK
4955 00       BRK
4956 00       BRK
4957 00       BRK
4958 00       BRK
4959 00       BRK
495A 00       BRK
495B 00       BRK
495C 00       BRK
495D 00       BRK
495E 00       BRK
495F 00       BRK
4960 00       BRK
4961 00       BRK
4962 00       BRK
4963 00       BRK
4964 00       BRK
4965 00       BRK
4966 00       BRK
4967 00       BRK
4968 00       BRK
4969 00       BRK
496A 00       BRK
496B 00       BRK
496C 00       BRK
496D 00       BRK
496E 00       BRK
496F 00       BRK
4970 3F       ???
4971 2A       ROL A
4972 2A       ROL A
4973 3F       ???
4974 2A       ROL A
4975 2A       ROL A
4976 2A       ROL A
4977 00       BRK
4978 2A       ROL A
4979 00       BRK
497A 00       BRK
497B 00       BRK
497C 00       BRK
497D 00       BRK
497E 00       BRK
497F 00       BRK
4980 15 2A    ORA 2A,X
4982 2A       ROL A
4983 3F       ???
4984 2A       ROL A
4985 2A       ROL A
4986 2A       ROL A
4987 00       BRK
4988 2A       ROL A
4989 15 15    ORA 15,X
498B 3F       ???
498C 15 15    ORA 15,X
498E 15 00    ORA 00,X
4990 15 15    ORA 15,X
4992 15 15    ORA 15,X
4994 15 15    ORA 15,X
4996 15 00    ORA 00,X
4998 00       BRK
4999 00       BRK
499A 00       BRK
499B 00       BRK
499C 00       BRK
499D 00       BRK
499E 3F       ???
499F 00       BRK
49A0 15 15    ORA 15,X
49A2 15 15    ORA 15,X
49A4 15 15    ORA 15,X
49A6 15 00    ORA 00,X
49A8 00       BRK
49A9 00       BRK
49AA 00       BRK
49AB 00       BRK
49AC 00       BRK
49AD 00       BRK
49AE 3F       ???
49AF 00       BRK
49B0 00       BRK
49B1 15 15    ORA 15,X
49B3 00       BRK
49B4 00       BRK
49B5 15 00    ORA 00,X
49B7 00       BRK
49B8 3F       ???
49B9 00       BRK
49BA 00       BRK
49BB 3F       ???
49BC 00       BRK
49BD 00       BRK
49BE 3F       ???
49BF 00       BRK
49C0 00       BRK
49C1 2A       ROL A
49C2 00       BRK
49C3 00       BRK
49C4 2A       ROL A
49C5 2A       ROL A
49C6 00       BRK
49C7 00       BRK
49C8 00       BRK
49C9 00       BRK
49CA 00       BRK
49CB 00       BRK
49CC 00       BRK
49CD 00       BRK
49CE 00       BRK
49CF 00       BRK
49D0 00       BRK
49D1 00       BRK
49D2 00       BRK
49D3 00       BRK
49D4 00       BRK
49D5 00       BRK
49D6 00       BRK
49D7 00       BRK
49D8 00       BRK
49D9 00       BRK
49DA 00       BRK
49DB 00       BRK
49DC 00       BRK
49DD 00       BRK
49DE 00       BRK
49DF 00       BRK
49E0 3F       ???
49E1 2A       ROL A
49E2 2A       ROL A
49E3 2A       ROL A
49E4 2A       ROL A
49E5 2A       ROL A
49E6 3F       ???
49E7 00       BRK
49E8 2A       ROL A
49E9 2A       ROL A
49EA 2A       ROL A
49EB 2A       ROL A
49EC 2A       ROL A
49ED 2A       ROL A
49EE 2A       ROL A
49EF 00       BRK
49F0 2A       ROL A
49F1 2A       ROL A
49F2 2A       ROL A
49F3 3F       ???
49F4 00       BRK
49F5 00       BRK
49F6 00       BRK
49F7 00       BRK
49F8 2A       ROL A
49F9 2A       ROL A
49FA 2A       ROL A
49FB 2A       ROL A
49FC 2A       ROL A
49FD 2A       ROL A
49FE 2A       ROL A
49FF 00       BRK
4A00 86 36    STX &36
4A02 84 37    STY &37
4A04 A0 00    LDY #&00
4A06 84 7B    STY &7B
4A08 B1 36    LDA (&36),Y
4A0A 30 42    BMI &4A4E
4A0C 85 49    STA &49
4A0E C8       INY
4A0F C8       INY
4A10 B1 36    LDA (&36),Y
4A12 85 4B    STA &4B
4A14 A5 35    LDA &35
4A16 85 47    STA &47
4A18 20 D5 03 JSR &03D5
4A1B A4 7B    LDY &7B
4A1D C8       INY
4A1E B1 36    LDA (&36),Y
4A20 85 49    STA &49
4A22 E6 45    INC &45
4A24 20 D5 03 JSR &03D5
4A27 A2 00    LDX #&00
4A29 86 47    STX &47
4A2B E8       INX
4A2C 86 4B    STX &4B
4A2E 20 D5 03 JSR &03D5
4A31 C6 45    DEC &45
4A33 20 D5 03 JSR &03D5
4A36 A5 35    LDA &35
4A38 85 47    STA &47
4A3A A9 80    LDA #&80
4A3C A2 FA    LDX #&FA
4A3E A0 FF    LDY #&FF
4A40 20 F4 FF JSR &FFF4         ; Read ADC
4A43 E0 0E    CPX #&0E
4A45 90 F3    BCC &4A3A
4A47 A4 7B    LDY &7B
4A49 C8       INY
4A4A C8       INY
4A4B C8       INY
4A4C 10 B8    BPL &4A06
4A4E 60       RTS
4A4F A2 45    LDX #&45
4A51 A0 00    LDY #&00
4A53 A9 07    LDA #&07
4A55 4C F1 FF JMP &FFF1
4A58 51 55    EOR (&55),Y
4A5A 42       ???
4A5B 20 31 31 JSR &3131
4A5E 0D 21 16 ORA &1621
4A61 05 20    ORA &20
4A63 0D 21 20 ORA &2021
4A66 2E 45 51 ROL &5145
4A69 55 42    EOR 42,X
4A6B 20 77 61 JSR &6177
4A6E 6C 6C 3A JMP (&3A6C)
4A71 45 51    EOR &51
4A73 55 42    EOR 42,X
4A75 20 2D 31 JSR &312D
4A78 3A       DEC A
4A79 45 51    EOR &51
4A7B 55 42    EOR 42,X
4A7D 20 38 38 JSR &3838
4A80 3A       DEC A
4A81 45 51    EOR &51
4A83 55 42    EOR 42,X
4A85 20 26 46 JSR &4626
4A88 31 3A    AND (&3A),Y
4A8A 45 51    EOR &51
4A8C 55 42    EOR 42,X
4A8E 20 32 33 JSR &3332
4A91 0D 21 2A ORA &2A21
4A94 05 20    ORA &20
4A96 0D 21 34 ORA &3421
4A99 30 45    BMI &4AE0
4A9B 51 55    EOR (&55),Y
4A9D 42       ???
4A9E 20 77 61 JSR &6177
4AA1 6C 6C 3A JMP (&3A6C)
4AA4 45 51    EOR &51
4AA6 55 42    EOR 42,X
4AA8 20 26 30 JSR &3026
4AAB 30 3A    BMI &4AE7
4AAD 45 51    EOR &51
4AAF 55 42    EOR 42,X
4AB1 20 31 36 JSR &3631
4AB4 30 3A    BMI &4AF0
4AB6 45 51    EOR &51
4AB8 55 42    EOR 42,X
4ABA 20 26 46 JSR &4626
4ABD 31 3A    AND (&3A),Y
4ABF 45 51    EOR &51
4AC1 55 42    EOR 42,X
4AC3 20 32 37 JSR &3732
4AC6 0D 21 3E ORA &3E21
4AC9 05 20    ORA &20
4ACB 0D 21 48 ORA &4821
4ACE 30 45    BMI &4B15
4AD0 51 55    EOR (&55),Y
4AD2 42       ???
4AD3 20 77 61 JSR &6177
4AD6 6C 6C 3A JMP (&3A6C)
4AD9 45 51    EOR &51
4ADB 55 42    EOR 42,X
4ADD 20 26 30 JSR &3026
4AE0 30 3A    BMI &4B1C
4AE2 45 51    EOR &51
4AE4 55 42    EOR 42,X
4AE6 20 32 33 JSR &3332
4AE9 34 3A    BIT 3A,X
4AEB 45 51    EOR &51
4AED 55 42    EOR 42,X
4AEF 20 26 46 JSR &4626
4AF2 31 3A    AND (&3A),Y
4AF4 45 51    EOR &51
4AF6 55 42    EOR 42,X
4AF8 20 32 37 JSR &3732
4AFB 0D 21 52 ORA &5221
4AFE 05 20    ORA &20
4B00 0D 21 5C ORA &5C21
4B03 30 45    BMI &4B4A
4B05 51 55    EOR (&55),Y
4B07 42       ???
4B08 20 77 61 JSR &6177
4B0B 6C 6C 3A JMP (&3A6C)
4B0E 45 51    EOR &51
4B10 55 42    EOR 42,X
4B12 20 26 30 JSR &3026
4B15 30 3A    BMI &4B51
4B17 45 51    EOR &51
4B19 55 42    EOR 42,X
4B1B 20 32 34 JSR &3432
4B1E 34 3A    BIT 3A,X
4B20 45 51    EOR &51
4B22 55 42    EOR 42,X
4B24 20 26 46 JSR &4626
4B27 31 3A    AND (&3A),Y
4B29 45 51    EOR &51
4B2B 55 42    EOR 42,X
4B2D 20 32 37 JSR &3732
4B30 0D 21 66 ORA &6621
4B33 05 20    ORA &20
4B35 0D 21 70 ORA &7021
4B38 2F       ???
4B39 45 51    EOR &51
4B3B 55 42    EOR 42,X
4B3D 20 70 6C JSR &6C70
4B40 75 67    ADC 67,X
4B42 3A       DEC A
4B43 45 51    EOR &51
4B45 55 42    EOR 42,X
4B47 20 26 30 JSR &3026
4B4A 34 3A    BIT 3A,X
4B4C 45 51    EOR &51
4B4E 55 42    EOR 42,X
4B50 20 32 32 JSR &3232
4B53 34 3A    BIT 3A,X
4B55 45 51    EOR &51
4B57 55 42    EOR 42,X
4B59 20 26 46 JSR &4626
4B5C 31 3A    AND (&3A),Y
4B5E 45 51    EOR &51
4B60 55 42    EOR 42,X
4B62 20 32 0D JSR &0D32
4B65 21 7A    AND (&7A,X)
4B67 05 20    ORA &20
4B69 0D 21 84 ORA &8421
4B6C 32 45    AND (45)
4B6E 51 55    EOR (&55),Y
4B70 42       ???
4B71 20 66 6C JSR &6C66
4B74 6F       ???
4B75 6F       ???
4B76 72 31    ADC (31)
4B78 3A       DEC A
4B79 45 51    EOR &51
4B7B 55 42    EOR 42,X
4B7D 20 26 30 JSR &3026
4B80 A9 8C    LDA #&8C          ; *TAPE
4B82 A2 00    LDX #&00
4B84 20 F4 FF JSR &FFF4
4B87 20 FD 4B JSR &4BFD         ; .. And download some data
4B8A A9 C8    LDA #&C8
4B8C A2 02    LDX #&02
4B8E A0 00    LDY #&00
4B90 20 F4 FF JSR &FFF4         ; *FX200,2
4B93 78       SEI
4B94 A9 C8    LDA #&C8
4B96 8D 20 02 STA &0220
4B99 A9 1B    LDA #&1B
4B9B 8D 21 02 STA &0221         ; Set user vector to 1BC8...
4B9E 58       CLI
4B9F A9 0E    LDA #&0E
4BA1 A2 04    LDX #&04
4BA3 20 F4 FF JSR &FFF4         ; ...and enable it with *FX14,4
4BA6 A9 7E    LDA #&7E
4BA8 20 F4 FF JSR &FFF4
4BAB 78       SEI
4BAC A2 0D    LDX #&0D
4BAE 8E 00 FE STX &FE00
4BB1 BD E0 4B LDA &4BE0,X
4BB4 8D 01 FE STA &FE01
4BB7 CA       DEX
4BB8 10 F4    BPL &4BAE
4BBA A9 14    LDA #&14
4BBC 8D 20 FE STA &FE20
4BBF 58       CLI
4BC0 A9 00    LDA #&00
4BC2 85 18    STA &18
4BC4 85 19    STA &19
4BC6 85 1A    STA &1A
4BC8 85 15    STA &15
4BCA 85 16    STA &16
4BCC 85 17    STA &17
4BCE 85 34    STA &34           ; Footstep sound delay
4BD0 A9 F1    LDA #&F1
4BD2 85 35    STA &35
4BD4 A9 08    LDA #&08
4BD6 A2 EE    LDX #&EE
4BD8 A0 4B    LDY #&4B
4BDA 20 F1 FF JSR &FFF1         ; OSWORD 8 - Define sound envelope
4BDD 4C 00 09 JMP &0900
4BE0 7F       ???
4BE1 50 62    BVC &4C45
4BE3 28       PLP
4BE4 26 00    ROL &00
4BE6 1D 21 01 ORA &0121,X
4BE9 07       ???
4BEA 00       BRK
4BEB 08       PHP
4BEC 06 F0    ASL &F0
4BEE 01 00    ORA (&00,X)
4BF0 00       BRK
4BF1 00       BRK
4BF2 00       BRK
4BF3 00       BRK
4BF4 00       BRK
4BF5 00       BRK
4BF6 7E 82 00 ROR &0082,X
4BF9 00       BRK
4BFA 7E 00 00 ROR &0000,X
4BFD A0 00    LDY #&00          ; Moves data down in memory
4BFF 84 00    STY &00
4C01 A9 19    LDA #&19
4C03 85 01    STA &01           ; &00/&01 -> &1900
4C05 A9 00    LDA #&00
4C07 85 02    STA &02
4C09 A9 09    LDA #&09
4C0B 85 03    STA &03           ; &02/&03 -> &900
4C0D A2 31    LDX #&31
4C0F B1 00    LDA (&00),Y       ; Downloads the tiles here, to &3246??
4C11 91 02    STA (&02),Y
4C13 C8       INY
4C14 D0 F9    BNE &4C0F
4C16 E6 01    INC &01
4C18 E6 03    INC &03
4C1A CA       DEX
4C1B D0 F2    BNE &4C0F         ; Loop round
4C1D A9 00    LDA #&00
4C1F 85 00    STA &00
4C21 A9 4A    LDA #&4A
4C23 85 01    STA &01           ; &00/&01 -> &4A00
4C25 A9 86    LDA #&86
4C27 85 02    STA &02
4C29 A9 03    LDA #&03
4C2B 85 03    STA &03           ; &02/&03 -> &386
4C2D A2 01    LDX #&01
4C2F A0 00    LDY #&00
4C31 B1 00    LDA (&00),Y
4C33 91 02    STA (&02),Y
4C35 C8       INY
4C36 D0 F9    BNE &4C31         ; inner loop
4C38 E6 01    INC &01
4C3A E6 03    INC &03
4C3C CA       DEX
4C3D D0 F2    BNE &4C31         ; outer loop
4C3F A9 01    LDA #&01
4C41 85 45    STA &45
4C43 85 46    STA &46           ; &45 and &46 = 1
4C45 A9 F1    LDA #&F1
4C47 85 47    STA &47           ; &47 = 241
4C49 A9 FF    LDA #&FF
4C4B 85 48    STA &48           ; &48 = 255
4C4D A9 00    LDA #&00
4C4F 85 49    STA &49
4C51 85 4A    STA &4A
4C53 85 4B    STA &4B           ; &49/4A/4B/4C = 0
4C55 85 4C    STA &4C
4C57 60       RTS               ; And return
4C58 37       ???
4C59 3A       DEC A
4C5A 45 51    EOR &51
4C5C 55 42    EOR 42,X
4C5E 20 39 38 JSR &3839
4C61 0D 21 F2 ORA &F221
4C64 05 20    ORA &20
4C66 0D 21 FC ORA &FC21
4C69 20 45 51 JSR &5145
4C6C 55 42    EOR 42,X
4C6E 20 76 5F JSR &5F76
4C71 77       ???
4C72 61 6C    ADC (&6C,X)
4C74 6C 31 3A JMP (&3A31)
4C77 45 51    EOR &51
4C79 55 42    EOR 42,X
4C7B 20 34 34 JSR &3434
4C7E 3A       DEC A
4C7F 45 51    EOR &51
4C81 55 42    EOR 42,X
4C83 20 39 38 JSR &3839
4C86 0D 22 06 ORA &0622
4C89 05 20    ORA &20
4C8B 0D 22 10 ORA &1022
4C8E 20 45 51 JSR &5145
4C91 55 42    EOR 42,X
4C93 20 76 5F JSR &5F76
4C96 77       ???
4C97 61 6C    ADC (&6C,X)
4C99 6C 31 3A JMP (&3A31)
4C9C 45 51    EOR &51
4C9E 55 42    EOR 42,X
4CA0 20 34 37 JSR &3734
4CA3 3A       DEC A
4CA4 45 51    EOR &51
4CA6 55 42    EOR 42,X
4CA8 20 39 38 JSR &3839
4CAB 0D 22 1A ORA &1A22
4CAE 05 20    ORA &20
4CB0 0D 22 24 ORA &2422
4CB3 0C 45 51 TSB &5145
4CB6 55 42    EOR 42,X
4CB8 20 26 46 JSR &4626
4CBB 33       ???
4CBC 0D 22 2E ORA &2E22
4CBF 05 20    ORA &20
4CC1 0D 22 38 ORA &3822
4CC4 05 20    ORA &20
4CC6 0D 22 42 ORA &4222
4CC9 1A       INC A
4CCA 2E 73 63 ROL &6373
4CCD 72 65    ADC (65)
4CCF 65 6E    ADC &6E
4CD1 38       SEC
4CD2 5F       ???
4CD3 6C 61 6E JMP (&6E61)
4CD6 74 65    STZ 65,X
4CD8 72 6E    ADC (6E)
4CDA 5F       ???
4CDB 74 61    STZ 61,X
4CDD 62       ???
4CDE 6C 65 0D JMP (&0D65)
4CE1 22       ???
4CE2 4C 1C 45 JMP &451C
4CE5 51 55    EOR (&55),Y
4CE7 42       ???
4CE8 20 26 30 JSR &3026
4CEB 30 3A    BMI &4D27
4CED 45 51    EOR &51
4CEF 55 42    EOR 42,X
4CF1 20 32 34 JSR &3432
4CF4 3A       DEC A
4CF5 45 51    EOR &51
4CF7 55 42    EOR 42,X
4CF9 20 33 32 JSR &3233
4CFC 0D 22 56 ORA &5622
4CFF 05 20    ORA &20
4D01 0D 22 60 ORA &6022
4D04 1C 45 51 TRB &5145
4D07 55 42    EOR 42,X
4D09 20 26 30 JSR &3026
4D0C 30 3A    BMI &4D48
4D0E 45 51    EOR &51
4D10 55 42    EOR 42,X
4D12 20 32 38 JSR &3832
4D15 3A       DEC A
4D16 45 51    EOR &51
4D18 55 42    EOR 42,X
4D1A 20 33 32 JSR &3233
4D1D 0D 22 6A ORA &6A22
4D20 05 20    ORA &20
4D22 0D 22 74 ORA &7422
4D25 1C 45 51 TRB &5145
4D28 55 42    EOR 42,X
4D2A 20 26 30 JSR &3026
4D2D 30 3A    BMI &4D69
4D2F 45 51    EOR &51
4D31 55 42    EOR 42,X
4D33 20 35 34 JSR &3435
4D36 3A       DEC A
4D37 45 51    EOR &51
4D39 55 42    EOR 42,X
4D3B 20 33 32 JSR &3233
4D3E 0D 22 7E ORA &7E22
4D41 05 20    ORA &20
4D43 0D 22 88 ORA &8822
4D46 1C 45 51 TRB &5145
4D49 55 42    EOR 42,X
4D4B 20 26 30 JSR &3026
4D4E 30 3A    BMI &4D8A
4D50 45 51    EOR &51
4D52 55 42    EOR 42,X
4D54 20 35 38 JSR &3835
4D57 3A       DEC A
4D58 45 51    EOR &51
4D5A 55 42    EOR 42,X
4D5C 20 33 32 JSR &3233
4D5F 0D 22 92 ORA &9222
4D62 05 20    ORA &20
4D64 0D 22 9C ORA &9C22
4D67 1C 45 51 TRB &5145
4D6A 55 42    EOR 42,X
4D6C 20 26 30 JSR &3026
4D6F 30 3A    BMI &4DAB
4D71 45 51    EOR &51
4D73 55 42    EOR 42,X
4D75 20 38 3A JSR &3A38
4D78 45 51    EOR &51
4D7A 55 42    EOR 42,X
4D7C 20 31 30 JSR &3031
4D7F 36       ???
4D80 A9 7E    LDA #&7E          ; Program entry point
4D82 20 F4 FF JSR &FFF4
4D85 20 E3 FF JSR &FFE3
4D88 A9 0C    LDA #&0C
4D8A 20 EE FF JSR &FFEE
4D8D 4C 80 4B JMP &4B80
